ARM GAS  C:\Users\DHEERA~1\AppData\Local\Temp\ccEinFAv.s 			page 1


   1              		.syntax unified
   2              		.cpu cortex-m3
   3              		.fpu softvfp
   4              		.eabi_attribute 20, 1
   5              		.eabi_attribute 21, 1
   6              		.eabi_attribute 23, 3
   7              		.eabi_attribute 24, 1
   8              		.eabi_attribute 25, 1
   9              		.eabi_attribute 26, 1
  10              		.eabi_attribute 30, 1
  11              		.eabi_attribute 34, 1
  12              		.eabi_attribute 18, 4
  13              		.thumb
  14              		.syntax unified
  15              		.file	"led.c"
  16              		.text
  17              	.Ltext0:
  18              		.cfi_sections	.debug_frame
  19              		.section	.text.LED_Set,"ax",%progbits
  20              		.align	2
  21              		.global	LED_Set
  22              		.thumb
  23              		.thumb_func
  24              		.type	LED_Set, %function
  25              	LED_Set:
  26              	.LFB111:
  27              		.file 1 "sources\\bsw\\led.c"
   1:sources\bsw/led.c **** /**
   2:sources\bsw/led.c **** * \file <filename>
   3:sources\bsw/led.c **** * \author <author-name>
   4:sources\bsw/led.c **** * \date <date>
   5:sources\bsw/led.c **** *
   6:sources\bsw/led.c **** * \brief <Symbolic File name>
   7:sources\bsw/led.c **** *
   8:sources\bsw/led.c **** * \copyright Copyright ©2016
   9:sources\bsw/led.c **** * Department of electrical engineering and information technology, Hochschule Darmstadt - Universit
  10:sources\bsw/led.c **** * Permission to use, copy, modify, and distribute this software and its documentation for education
  11:sources\bsw/led.c **** * (unless permitted by h_da) and official h_da projects, is hereby granted for enrolled students of
  12:sources\bsw/led.c **** * this paragraph and the following paragraph appear in all copies, modifications, and distributions
  13:sources\bsw/led.c **** * Contact Prof.Dr.-Ing. Peter Fromm, peter.fromm@h-da.de, Birkenweg 8 64295 Darmstadt - GERMANY for
  14:sources\bsw/led.c **** *
  15:sources\bsw/led.c **** * \warning This software is a PROTOTYPE version and is not designed or intended for use in producti
  16:sources\bsw/led.c **** * The user represents and warrants that it will NOT use or redistribute the Software for such purpo
  17:sources\bsw/led.c **** * This prototype is for research purposes only. This software is provided "AS IS," without a warran
  18:sources\bsw/led.c **** */
  19:sources\bsw/led.c **** 
  20:sources\bsw/led.c **** /*****************************************************************************/
  21:sources\bsw/led.c **** /* Include files                                                             */
  22:sources\bsw/led.c **** /*****************************************************************************/
  23:sources\bsw/led.c **** 
  24:sources\bsw/led.c **** #include "project.h"
  25:sources\bsw/led.c **** #include "led.h"
  26:sources\bsw/led.c **** 
  27:sources\bsw/led.c **** 
  28:sources\bsw/led.c **** /*****************************************************************************/
  29:sources\bsw/led.c **** /* Local pre-processor symbols/macros ('#define')                            */
  30:sources\bsw/led.c **** /*****************************************************************************/
ARM GAS  C:\Users\DHEERA~1\AppData\Local\Temp\ccEinFAv.s 			page 2


  31:sources\bsw/led.c **** 
  32:sources\bsw/led.c **** /*****************************************************************************/
  33:sources\bsw/led.c **** /* Global variable definitions (declared in header file with 'extern')       */
  34:sources\bsw/led.c **** /*****************************************************************************/
  35:sources\bsw/led.c **** 
  36:sources\bsw/led.c **** /*****************************************************************************/
  37:sources\bsw/led.c **** /* Local type definitions ('typedef')                                        */
  38:sources\bsw/led.c **** /*****************************************************************************/
  39:sources\bsw/led.c **** 
  40:sources\bsw/led.c **** 
  41:sources\bsw/led.c **** 
  42:sources\bsw/led.c **** /*****************************************************************************/
  43:sources\bsw/led.c **** /* Local variable definitions ('static')                                     */
  44:sources\bsw/led.c **** /*****************************************************************************/
  45:sources\bsw/led.c **** 
  46:sources\bsw/led.c **** 
  47:sources\bsw/led.c **** static LED_ONOFF_t LED__state[LED_ALL] = {LED_OFF, LED_OFF, LED_OFF}; /**< On/Off State of the LED,
  48:sources\bsw/led.c **** 
  49:sources\bsw/led.c **** const static uint16 LED__Pulse_Width[256] = {
  50:sources\bsw/led.c ****     0, 1, 1, 1, 1, 1, 1, 1, 1, 2, 2, 2, 2, 2, 2, 2, 2, 2, 2, 2, 2, 3,
  51:sources\bsw/led.c ****     3, 3, 3, 3, 3, 3, 4, 4, 4, 4, 4, 4, 5, 5, 5, 5, 5, 6, 6, 6, 6, 7,
  52:sources\bsw/led.c ****     7, 7, 8, 8, 8, 9, 9, 10, 10, 10, 11, 11, 12, 12, 13, 13, 14, 15,
  53:sources\bsw/led.c ****     15, 16, 17, 17, 18, 19, 20, 21, 22, 23, 24, 25, 26, 27, 28, 29,
  54:sources\bsw/led.c ****     31, 32, 33, 35, 36, 38, 40, 41, 43, 45, 47, 49, 52, 54, 56, 59,
  55:sources\bsw/led.c ****     61, 64, 67, 70, 73, 76, 79, 83, 87, 91, 95, 99, 103, 108, 112,
  56:sources\bsw/led.c ****     117, 123, 128, 134, 140, 146, 152, 159, 166, 173, 181, 189, 197,
  57:sources\bsw/led.c ****     206, 215, 225, 235, 245, 256, 267, 279, 292, 304, 318, 332, 347,
  58:sources\bsw/led.c ****     362, 378, 395, 412, 431, 450, 470, 490, 512, 535, 558, 583, 609,
  59:sources\bsw/led.c ****     636, 664, 693, 724, 756, 790, 825, 861, 899, 939, 981, 1024, 1069,
  60:sources\bsw/led.c ****     1117, 1166, 1218, 1272, 1328, 1387, 1448, 1512, 1579, 1649, 1722,
  61:sources\bsw/led.c ****     1798, 1878, 1961, 2048, 2139, 2233, 2332, 2435, 2543, 2656, 2773,
  62:sources\bsw/led.c ****     2896, 3025, 3158, 3298, 3444, 3597, 3756, 3922, 4096, 4277, 4467,
  63:sources\bsw/led.c ****     4664, 4871, 5087, 5312, 5547, 5793, 6049, 6317, 6596, 6889, 7194,
  64:sources\bsw/led.c ****     7512, 7845, 8192, 8555, 8933, 9329, 9742, 10173, 10624, 11094,
  65:sources\bsw/led.c ****     11585, 12098, 12634, 13193, 13777, 14387, 15024, 15689, 16384,
  66:sources\bsw/led.c ****     17109, 17867, 18658, 19484, 20346, 21247, 22188, 23170, 24196,
  67:sources\bsw/led.c ****     25267, 26386, 27554, 28774, 30048, 31378, 32768, 34218, 35733,
  68:sources\bsw/led.c ****     37315, 38967, 40693, 42494, 44376, 46340, 48392, 50534, 52772,
  69:sources\bsw/led.c ****     55108, 57548, 60096, 62757, 65535
  70:sources\bsw/led.c **** };
  71:sources\bsw/led.c **** 
  72:sources\bsw/led.c **** /*****************************************************************************/
  73:sources\bsw/led.c **** /* Local function prototypes ('static')                                      */
  74:sources\bsw/led.c **** /*****************************************************************************/
  75:sources\bsw/led.c **** 
  76:sources\bsw/led.c **** /**
  77:sources\bsw/led.c ****  * Inverts the parameter
  78:sources\bsw/led.c ****  * @param LED_ONOFF_t ledOnOff - Value to be inverted
  79:sources\bsw/led.c ****  * @return inverted parameter
  80:sources\bsw/led.c ****  */
  81:sources\bsw/led.c **** static inline LED_ONOFF_t LED__toggleValue(LED_ONOFF_t ledOnOff);
  82:sources\bsw/led.c **** 
  83:sources\bsw/led.c **** 
  84:sources\bsw/led.c **** /*****************************************************************************/
  85:sources\bsw/led.c **** /* Function implementation - global ('extern') and local ('static')          */
  86:sources\bsw/led.c **** /*****************************************************************************/
  87:sources\bsw/led.c **** 
ARM GAS  C:\Users\DHEERA~1\AppData\Local\Temp\ccEinFAv.s 			page 3


  88:sources\bsw/led.c **** /**
  89:sources\bsw/led.c ****  * Initialises the LED's and turns them off
  90:sources\bsw/led.c ****  * @return RC_SUCCESS if function was executed as exepected, other error code in case of error
  91:sources\bsw/led.c ****  */
  92:sources\bsw/led.c **** RC_t LED_Init()
  93:sources\bsw/led.c **** {
  94:sources\bsw/led.c ****     RC_t result = RC_SUCCESS;
  95:sources\bsw/led.c ****     
  96:sources\bsw/led.c ****     for (LED_id_t i = LED_RED; i < LED_ALL; i++)
  97:sources\bsw/led.c ****     {
  98:sources\bsw/led.c ****         LED__state[i] = OFF;
  99:sources\bsw/led.c ****         
 100:sources\bsw/led.c ****         RC_t clearResult;
 101:sources\bsw/led.c ****         clearResult = LED_Set(i, LED_OFF);
 102:sources\bsw/led.c ****         
 103:sources\bsw/led.c ****         if (clearResult != RC_SUCCESS)
 104:sources\bsw/led.c ****         {
 105:sources\bsw/led.c ****             //memorize error
 106:sources\bsw/led.c ****             result = clearResult;
 107:sources\bsw/led.c ****         }
 108:sources\bsw/led.c ****     }
 109:sources\bsw/led.c ****     
 110:sources\bsw/led.c ****     //Init RGB
 111:sources\bsw/led.c ****     RGB_PWM_blue_Start();
 112:sources\bsw/led.c ****     RGB_PWM_green_Start();
 113:sources\bsw/led.c ****     RGB_PWM_red_Start();
 114:sources\bsw/led.c ****     
 115:sources\bsw/led.c ****     return result;
 116:sources\bsw/led.c **** }
 117:sources\bsw/led.c **** 
 118:sources\bsw/led.c **** /**
 119:sources\bsw/led.c ****  * Sets the required LED
 120:sources\bsw/led.c ****  * @param LED_t ledId - Identifier for the LED, ALL will change all LED's
 121:sources\bsw/led.c ****  * @param LED_ONOFF_t ledOnOff - Trun the led on or off
 122:sources\bsw/led.c ****  * @return RC_SUCCESS if function was executed as exepected, other error code in case of error
 123:sources\bsw/led.c ****  */
 124:sources\bsw/led.c **** RC_t LED_Set(LED_id_t ledId, LED_ONOFF_t ledOnOff)
 125:sources\bsw/led.c **** {
  28              		.loc 1 125 0
  29              		.cfi_startproc
  30              		@ args = 0, pretend = 0, frame = 0
  31              		@ frame_needed = 0, uses_anonymous_args = 0
  32              	.LVL0:
 126:sources\bsw/led.c ****     //set individual LED
 127:sources\bsw/led.c ****     switch (ledId)
  33              		.loc 1 127 0
  34 0000 48B9     		cbnz	r0, .L5
 125:sources\bsw/led.c ****     //set individual LED
  35              		.loc 1 125 0
  36 0002 38B5     		push	{r3, r4, r5, lr}
  37              		.cfi_def_cfa_offset 16
  38              		.cfi_offset 3, -16
  39              		.cfi_offset 4, -12
  40              		.cfi_offset 5, -8
  41              		.cfi_offset 14, -4
  42 0004 0546     		mov	r5, r0
  43 0006 0C46     		mov	r4, r1
ARM GAS  C:\Users\DHEERA~1\AppData\Local\Temp\ccEinFAv.s 			page 4


 128:sources\bsw/led.c ****     {
 129:sources\bsw/led.c ****         case LED_RED : 
 130:sources\bsw/led.c ****             LED_red_Write(ledOnOff); 
  44              		.loc 1 130 0
  45 0008 0846     		mov	r0, r1
  46              	.LVL1:
  47 000a FFF7FEFF 		bl	LED_red_Write
  48              	.LVL2:
 131:sources\bsw/led.c ****             LED__state[ledId] = ledOnOff; 
  49              		.loc 1 131 0
  50 000e 034B     		ldr	r3, .L8
  51 0010 5C55     		strb	r4, [r3, r5]
 132:sources\bsw/led.c ****             break;
 133:sources\bsw/led.c ****         /*
 134:sources\bsw/led.c ****         case LED_YELLOW : 
 135:sources\bsw/led.c ****             LED_yellow_Write(ledOnOff); 
 136:sources\bsw/led.c ****             LED__state[ledId] = ledOnOff;
 137:sources\bsw/led.c ****             break;
 138:sources\bsw/led.c ****             
 139:sources\bsw/led.c ****         case LED_GREEN : 
 140:sources\bsw/led.c ****             LED_green_Write(ledOnOff); 
 141:sources\bsw/led.c ****             LED__state[ledId] = ledOnOff;
 142:sources\bsw/led.c ****             break;
 143:sources\bsw/led.c ****            
 144:sources\bsw/led.c ****         case LED_ALL : 
 145:sources\bsw/led.c ****             for (LED_id_t i = LED_RED; i < LED_ALL; i++)
 146:sources\bsw/led.c ****             {
 147:sources\bsw/led.c ****                 LED_Set(i, ledOnOff);
 148:sources\bsw/led.c ****             }
 149:sources\bsw/led.c ****             break;
 150:sources\bsw/led.c ****         */
 151:sources\bsw/led.c ****         default: return RC_ERROR_BAD_PARAM;
 152:sources\bsw/led.c ****     }
 153:sources\bsw/led.c ****     
 154:sources\bsw/led.c ****     return RC_SUCCESS;
  52              		.loc 1 154 0
  53 0012 0020     		movs	r0, #0
  54 0014 38BD     		pop	{r3, r4, r5, pc}
  55              	.LVL3:
  56              	.L5:
  57              		.cfi_def_cfa_offset 0
  58              		.cfi_restore 3
  59              		.cfi_restore 4
  60              		.cfi_restore 5
  61              		.cfi_restore 14
 151:sources\bsw/led.c ****     }
  62              		.loc 1 151 0
  63 0016 6FF01300 		mvn	r0, #19
  64              	.LVL4:
  65 001a 7047     		bx	lr
  66              	.L9:
  67              		.align	2
  68              	.L8:
  69 001c 00000000 		.word	.LANCHOR0
  70              		.cfi_endproc
  71              	.LFE111:
  72              		.size	LED_Set, .-LED_Set
ARM GAS  C:\Users\DHEERA~1\AppData\Local\Temp\ccEinFAv.s 			page 5


  73              		.section	.text.LED_Init,"ax",%progbits
  74              		.align	2
  75              		.global	LED_Init
  76              		.thumb
  77              		.thumb_func
  78              		.type	LED_Init, %function
  79              	LED_Init:
  80              	.LFB110:
  93:sources\bsw/led.c ****     RC_t result = RC_SUCCESS;
  81              		.loc 1 93 0
  82              		.cfi_startproc
  83              		@ args = 0, pretend = 0, frame = 0
  84              		@ frame_needed = 0, uses_anonymous_args = 0
  85 0000 38B5     		push	{r3, r4, r5, lr}
  86              		.cfi_def_cfa_offset 16
  87              		.cfi_offset 3, -16
  88              		.cfi_offset 4, -12
  89              		.cfi_offset 5, -8
  90              		.cfi_offset 14, -4
  91              	.LVL5:
  92              	.LBB10:
  96:sources\bsw/led.c ****     {
  93              		.loc 1 96 0
  94 0002 0024     		movs	r4, #0
  95              	.LBE10:
  94:sources\bsw/led.c ****     
  96              		.loc 1 94 0
  97 0004 2546     		mov	r5, r4
  98              	.LBB12:
  96:sources\bsw/led.c ****     {
  99              		.loc 1 96 0
 100 0006 09E0     		b	.L11
 101              	.LVL6:
 102              	.L13:
 103              	.LBB11:
  98:sources\bsw/led.c ****         
 104              		.loc 1 98 0
 105 0008 0021     		movs	r1, #0
 106 000a 094B     		ldr	r3, .L16
 107 000c 1955     		strb	r1, [r3, r4]
 101:sources\bsw/led.c ****         
 108              		.loc 1 101 0
 109 000e 2046     		mov	r0, r4
 110 0010 FFF7FEFF 		bl	LED_Set
 111              	.LVL7:
 103:sources\bsw/led.c ****         {
 112              		.loc 1 103 0
 113 0014 00B1     		cbz	r0, .L12
 106:sources\bsw/led.c ****         }
 114              		.loc 1 106 0
 115 0016 0546     		mov	r5, r0
 116              	.LVL8:
 117              	.L12:
 118              	.LBE11:
  96:sources\bsw/led.c ****     {
 119              		.loc 1 96 0 discriminator 2
 120 0018 0134     		adds	r4, r4, #1
ARM GAS  C:\Users\DHEERA~1\AppData\Local\Temp\ccEinFAv.s 			page 6


 121              	.LVL9:
 122 001a E4B2     		uxtb	r4, r4
 123              	.LVL10:
 124              	.L11:
  96:sources\bsw/led.c ****     {
 125              		.loc 1 96 0 is_stmt 0 discriminator 1
 126 001c 022C     		cmp	r4, #2
 127 001e F3D9     		bls	.L13
 128              	.LBE12:
 111:sources\bsw/led.c ****     RGB_PWM_green_Start();
 129              		.loc 1 111 0 is_stmt 1
 130 0020 FFF7FEFF 		bl	RGB_PWM_blue_Start
 131              	.LVL11:
 112:sources\bsw/led.c ****     RGB_PWM_red_Start();
 132              		.loc 1 112 0
 133 0024 FFF7FEFF 		bl	RGB_PWM_green_Start
 134              	.LVL12:
 113:sources\bsw/led.c ****     
 135              		.loc 1 113 0
 136 0028 FFF7FEFF 		bl	RGB_PWM_red_Start
 137              	.LVL13:
 116:sources\bsw/led.c **** 
 138              		.loc 1 116 0
 139 002c 2846     		mov	r0, r5
 140 002e 38BD     		pop	{r3, r4, r5, pc}
 141              	.LVL14:
 142              	.L17:
 143              		.align	2
 144              	.L16:
 145 0030 00000000 		.word	.LANCHOR0
 146              		.cfi_endproc
 147              	.LFE110:
 148              		.size	LED_Init, .-LED_Init
 149              		.section	.text.LED_Toggle,"ax",%progbits
 150              		.align	2
 151              		.global	LED_Toggle
 152              		.thumb
 153              		.thumb_func
 154              		.type	LED_Toggle, %function
 155              	LED_Toggle:
 156              	.LFB112:
 155:sources\bsw/led.c **** }
 156:sources\bsw/led.c **** 
 157:sources\bsw/led.c **** 
 158:sources\bsw/led.c **** 
 159:sources\bsw/led.c **** /**
 160:sources\bsw/led.c ****  * Toggle the required LED
 161:sources\bsw/led.c ****  * @param LED_t ledId - Identifier for the LED, ALL will change all LED's
 162:sources\bsw/led.c ****  * @return RC_SUCCESS if function was executed as exepected, other error code in case of error
 163:sources\bsw/led.c ****  */
 164:sources\bsw/led.c **** RC_t LED_Toggle(LED_id_t ledId)
 165:sources\bsw/led.c **** {
 157              		.loc 1 165 0
 158              		.cfi_startproc
 159              		@ args = 0, pretend = 0, frame = 0
 160              		@ frame_needed = 0, uses_anonymous_args = 0
 161              	.LVL15:
ARM GAS  C:\Users\DHEERA~1\AppData\Local\Temp\ccEinFAv.s 			page 7


 162 0000 10B5     		push	{r4, lr}
 163              		.cfi_def_cfa_offset 8
 164              		.cfi_offset 4, -8
 165              		.cfi_offset 14, -4
 166:sources\bsw/led.c ****     //set individual LED
 167:sources\bsw/led.c ****     switch (ledId)
 166              		.loc 1 167 0
 167 0002 0328     		cmp	r0, #3
 168 0004 38D8     		bhi	.L29
 169 0006 DFE800F0 		tbb	[pc, r0]
 170              	.L21:
 171 000a 02       		.byte	(.L20-.L21)/2
 172 000b 10       		.byte	(.L22-.L21)/2
 173 000c 1E       		.byte	(.L23-.L21)/2
 174 000d 32       		.byte	(.L30-.L21)/2
 175              		.p2align 1
 176              	.L20:
 177              	.LBB13:
 168:sources\bsw/led.c ****     {
 169:sources\bsw/led.c ****         case LED_RED : 
 170:sources\bsw/led.c ****             LED__state[ledId] = LED__toggleValue(LED__state[ledId]); 
 178              		.loc 1 170 0
 179 000e 1C4B     		ldr	r3, .L35
 180 0010 1B5C     		ldrb	r3, [r3, r0]	@ zero_extendqisi2
 181              	.LVL16:
 182              	.LBB14:
 183              	.LBB15:
 171:sources\bsw/led.c ****             LED_red_Write(LED__state[ledId]);
 172:sources\bsw/led.c ****             break;
 173:sources\bsw/led.c ****         
 174:sources\bsw/led.c ****         case LED_YELLOW : 
 175:sources\bsw/led.c ****             LED__state[ledId] = LED__toggleValue(LED__state[ledId]); 
 176:sources\bsw/led.c ****             LED_yellow_Write(LED__state[ledId]);
 177:sources\bsw/led.c ****             break;
 178:sources\bsw/led.c ****             
 179:sources\bsw/led.c ****         case LED_GREEN : 
 180:sources\bsw/led.c ****             LED__state[ledId] = LED__toggleValue(LED__state[ledId]); 
 181:sources\bsw/led.c ****             LED_green_Write(LED__state[ledId]);
 182:sources\bsw/led.c ****             break;
 183:sources\bsw/led.c ****            
 184:sources\bsw/led.c ****         case LED_ALL : 
 185:sources\bsw/led.c ****             for (LED_id_t i = LED_RED; i < LED_ALL; i++)
 186:sources\bsw/led.c ****             {
 187:sources\bsw/led.c ****                 LED_Toggle(i);
 188:sources\bsw/led.c ****             }
 189:sources\bsw/led.c ****             break;
 190:sources\bsw/led.c ****         default: return RC_ERROR_BAD_PARAM;
 191:sources\bsw/led.c ****     }
 192:sources\bsw/led.c ****     
 193:sources\bsw/led.c ****     return RC_SUCCESS;
 194:sources\bsw/led.c **** }
 195:sources\bsw/led.c **** 
 196:sources\bsw/led.c **** 
 197:sources\bsw/led.c **** /**
 198:sources\bsw/led.c ****  * Inverts the parameter
 199:sources\bsw/led.c ****  * @param LED_ONOFF_t ledOnOff - Value to be inverted
 200:sources\bsw/led.c ****  * @return inverted parameter
ARM GAS  C:\Users\DHEERA~1\AppData\Local\Temp\ccEinFAv.s 			page 8


 201:sources\bsw/led.c ****  */
 202:sources\bsw/led.c **** static inline LED_ONOFF_t LED__toggleValue(LED_ONOFF_t ledOnOff)
 203:sources\bsw/led.c **** {
 204:sources\bsw/led.c ****     if (ledOnOff == LED_ON) 
 184              		.loc 1 204 0
 185 0012 012B     		cmp	r3, #1
 186 0014 01D1     		bne	.L31
 205:sources\bsw/led.c ****     {
 206:sources\bsw/led.c ****         return LED_OFF;
 187              		.loc 1 206 0
 188 0016 0023     		movs	r3, #0
 189              	.LVL17:
 190 0018 00E0     		b	.L25
 191              	.LVL18:
 192              	.L31:
 207:sources\bsw/led.c ****     }
 208:sources\bsw/led.c ****     else
 209:sources\bsw/led.c ****     {
 210:sources\bsw/led.c ****         return LED_ON;
 193              		.loc 1 210 0
 194 001a 0123     		movs	r3, #1
 195              	.LVL19:
 196              	.L25:
 197              	.LBE15:
 198              	.LBE14:
 170:sources\bsw/led.c ****             LED_red_Write(LED__state[ledId]);
 199              		.loc 1 170 0
 200 001c 184A     		ldr	r2, .L35
 201 001e 1354     		strb	r3, [r2, r0]
 171:sources\bsw/led.c ****             break;
 202              		.loc 1 171 0
 203 0020 1846     		mov	r0, r3
 204              	.LVL20:
 205 0022 FFF7FEFF 		bl	LED_red_Write
 206              	.LVL21:
 207              	.LBE13:
 193:sources\bsw/led.c **** }
 208              		.loc 1 193 0
 209 0026 0020     		movs	r0, #0
 210              	.LBB23:
 172:sources\bsw/led.c ****         
 211              		.loc 1 172 0
 212 0028 10BD     		pop	{r4, pc}
 213              	.LVL22:
 214              	.L22:
 175:sources\bsw/led.c ****             LED_yellow_Write(LED__state[ledId]);
 215              		.loc 1 175 0
 216 002a 154B     		ldr	r3, .L35
 217 002c 1B5C     		ldrb	r3, [r3, r0]	@ zero_extendqisi2
 218              	.LVL23:
 219              	.LBB16:
 220              	.LBB17:
 204:sources\bsw/led.c ****     {
 221              		.loc 1 204 0
 222 002e 012B     		cmp	r3, #1
 223 0030 01D1     		bne	.L32
 206:sources\bsw/led.c ****     }
ARM GAS  C:\Users\DHEERA~1\AppData\Local\Temp\ccEinFAv.s 			page 9


 224              		.loc 1 206 0
 225 0032 0023     		movs	r3, #0
 226              	.LVL24:
 227 0034 00E0     		b	.L26
 228              	.LVL25:
 229              	.L32:
 230              		.loc 1 210 0
 231 0036 0123     		movs	r3, #1
 232              	.LVL26:
 233              	.L26:
 234              	.LBE17:
 235              	.LBE16:
 175:sources\bsw/led.c ****             LED_yellow_Write(LED__state[ledId]);
 236              		.loc 1 175 0
 237 0038 114A     		ldr	r2, .L35
 238 003a 1354     		strb	r3, [r2, r0]
 176:sources\bsw/led.c ****             break;
 239              		.loc 1 176 0
 240 003c 1846     		mov	r0, r3
 241              	.LVL27:
 242 003e FFF7FEFF 		bl	LED_yellow_Write
 243              	.LVL28:
 244              	.LBE23:
 193:sources\bsw/led.c **** }
 245              		.loc 1 193 0
 246 0042 0020     		movs	r0, #0
 247              	.LBB24:
 177:sources\bsw/led.c ****             
 248              		.loc 1 177 0
 249 0044 10BD     		pop	{r4, pc}
 250              	.LVL29:
 251              	.L23:
 180:sources\bsw/led.c ****             LED_green_Write(LED__state[ledId]);
 252              		.loc 1 180 0
 253 0046 0E4B     		ldr	r3, .L35
 254 0048 1B5C     		ldrb	r3, [r3, r0]	@ zero_extendqisi2
 255              	.LVL30:
 256              	.LBB18:
 257              	.LBB19:
 204:sources\bsw/led.c ****     {
 258              		.loc 1 204 0
 259 004a 012B     		cmp	r3, #1
 260 004c 01D1     		bne	.L33
 206:sources\bsw/led.c ****     }
 261              		.loc 1 206 0
 262 004e 0023     		movs	r3, #0
 263              	.LVL31:
 264 0050 00E0     		b	.L27
 265              	.LVL32:
 266              	.L33:
 267              		.loc 1 210 0
 268 0052 0123     		movs	r3, #1
 269              	.LVL33:
 270              	.L27:
 271              	.LBE19:
 272              	.LBE18:
 180:sources\bsw/led.c ****             LED_green_Write(LED__state[ledId]);
ARM GAS  C:\Users\DHEERA~1\AppData\Local\Temp\ccEinFAv.s 			page 10


 273              		.loc 1 180 0
 274 0054 0A4A     		ldr	r2, .L35
 275 0056 1354     		strb	r3, [r2, r0]
 181:sources\bsw/led.c ****             break;
 276              		.loc 1 181 0
 277 0058 1846     		mov	r0, r3
 278              	.LVL34:
 279 005a FFF7FEFF 		bl	LED_green_Write
 280              	.LVL35:
 281              	.LBE24:
 193:sources\bsw/led.c **** }
 282              		.loc 1 193 0
 283 005e 0020     		movs	r0, #0
 284              	.LBB25:
 182:sources\bsw/led.c ****            
 285              		.loc 1 182 0
 286 0060 10BD     		pop	{r4, pc}
 287              	.LVL36:
 288              	.L28:
 289              	.LBB20:
 187:sources\bsw/led.c ****             }
 290              		.loc 1 187 0 discriminator 3
 291 0062 2046     		mov	r0, r4
 292 0064 FFF7FEFF 		bl	LED_Toggle
 293              	.LVL37:
 185:sources\bsw/led.c ****             {
 294              		.loc 1 185 0 discriminator 3
 295 0068 0134     		adds	r4, r4, #1
 296              	.LVL38:
 297 006a E4B2     		uxtb	r4, r4
 298              	.LVL39:
 299 006c 00E0     		b	.L24
 300              	.LVL40:
 301              	.L30:
 302              	.LBE20:
 303              	.LBE25:
 167:sources\bsw/led.c ****     {
 304              		.loc 1 167 0
 305 006e 0024     		movs	r4, #0
 306              	.LVL41:
 307              	.L24:
 308              	.LBB26:
 309              	.LBB21:
 185:sources\bsw/led.c ****             {
 310              		.loc 1 185 0 discriminator 1
 311 0070 022C     		cmp	r4, #2
 312 0072 F6D9     		bls	.L28
 313              	.LBE21:
 314              	.LBE26:
 193:sources\bsw/led.c **** }
 315              		.loc 1 193 0
 316 0074 0020     		movs	r0, #0
 317              	.LBB27:
 318              	.LBB22:
 319 0076 10BD     		pop	{r4, pc}
 320              	.LVL42:
 321              	.L29:
ARM GAS  C:\Users\DHEERA~1\AppData\Local\Temp\ccEinFAv.s 			page 11


 322              	.LBE22:
 190:sources\bsw/led.c ****     }
 323              		.loc 1 190 0
 324 0078 6FF01300 		mvn	r0, #19
 325              	.LVL43:
 326              	.LBE27:
 194:sources\bsw/led.c **** 
 327              		.loc 1 194 0
 328 007c 10BD     		pop	{r4, pc}
 329              	.L36:
 330 007e 00BF     		.align	2
 331              	.L35:
 332 0080 00000000 		.word	.LANCHOR0
 333              		.cfi_endproc
 334              	.LFE112:
 335              		.size	LED_Toggle, .-LED_Toggle
 336              		.section	.text.LED_RGB_Set,"ax",%progbits
 337              		.align	2
 338              		.global	LED_RGB_Set
 339              		.thumb
 340              		.thumb_func
 341              		.type	LED_RGB_Set, %function
 342              	LED_RGB_Set:
 343              	.LFB114:
 211:sources\bsw/led.c ****     }
 212:sources\bsw/led.c **** }
 213:sources\bsw/led.c **** 
 214:sources\bsw/led.c **** /**
 215:sources\bsw/led.c ****  * Set the RGB LED
 216:sources\bsw/led.c ****  * @param uint16_t red - brightness 
 217:sources\bsw/led.c ****  * @param uint16_t green - brightness 
 218:sources\bsw/led.c ****  * @param uint16_t blue - brightness 
 219:sources\bsw/led.c ****  * @return RC_SUCCESS if function was executed as exepected, other error code in case of error
 220:sources\bsw/led.c ****  */
 221:sources\bsw/led.c **** RC_t LED_RGB_Set(uint8_t red, uint8_t green, uint8_t blue)
 222:sources\bsw/led.c **** {
 344              		.loc 1 222 0
 345              		.cfi_startproc
 346              		@ args = 0, pretend = 0, frame = 0
 347              		@ frame_needed = 0, uses_anonymous_args = 0
 348              	.LVL44:
 349 0000 70B5     		push	{r4, r5, r6, lr}
 350              		.cfi_def_cfa_offset 16
 351              		.cfi_offset 4, -16
 352              		.cfi_offset 5, -12
 353              		.cfi_offset 6, -8
 354              		.cfi_offset 14, -4
 355 0002 0E46     		mov	r6, r1
 356 0004 1546     		mov	r5, r2
 223:sources\bsw/led.c ****     RGB_PWM_red_WriteCompare(LED__Pulse_Width[red]);
 357              		.loc 1 223 0
 358 0006 074C     		ldr	r4, .L39
 359 0008 34F81000 		ldrh	r0, [r4, r0, lsl #1]
 360              	.LVL45:
 361 000c FFF7FEFF 		bl	RGB_PWM_red_WriteCompare
 362              	.LVL46:
 224:sources\bsw/led.c ****     RGB_PWM_green_WriteCompare(LED__Pulse_Width[green]);
ARM GAS  C:\Users\DHEERA~1\AppData\Local\Temp\ccEinFAv.s 			page 12


 363              		.loc 1 224 0
 364 0010 34F81600 		ldrh	r0, [r4, r6, lsl #1]
 365 0014 FFF7FEFF 		bl	RGB_PWM_green_WriteCompare
 366              	.LVL47:
 225:sources\bsw/led.c ****     RGB_PWM_blue_WriteCompare(LED__Pulse_Width[blue]);
 367              		.loc 1 225 0
 368 0018 34F81500 		ldrh	r0, [r4, r5, lsl #1]
 369 001c FFF7FEFF 		bl	RGB_PWM_blue_WriteCompare
 370              	.LVL48:
 226:sources\bsw/led.c ****  
 227:sources\bsw/led.c ****     return RC_SUCCESS;
 228:sources\bsw/led.c **** }
 371              		.loc 1 228 0
 372 0020 0020     		movs	r0, #0
 373 0022 70BD     		pop	{r4, r5, r6, pc}
 374              	.L40:
 375              		.align	2
 376              	.L39:
 377 0024 00000000 		.word	.LANCHOR1
 378              		.cfi_endproc
 379              	.LFE114:
 380              		.size	LED_RGB_Set, .-LED_RGB_Set
 381              		.section	.rodata
 382              		.align	2
 383              		.set	.LANCHOR1,. + 0
 384              		.type	LED__Pulse_Width, %object
 385              		.size	LED__Pulse_Width, 512
 386              	LED__Pulse_Width:
 387 0000 0000     		.short	0
 388 0002 0100     		.short	1
 389 0004 0100     		.short	1
 390 0006 0100     		.short	1
 391 0008 0100     		.short	1
 392 000a 0100     		.short	1
 393 000c 0100     		.short	1
 394 000e 0100     		.short	1
 395 0010 0100     		.short	1
 396 0012 0200     		.short	2
 397 0014 0200     		.short	2
 398 0016 0200     		.short	2
 399 0018 0200     		.short	2
 400 001a 0200     		.short	2
 401 001c 0200     		.short	2
 402 001e 0200     		.short	2
 403 0020 0200     		.short	2
 404 0022 0200     		.short	2
 405 0024 0200     		.short	2
 406 0026 0200     		.short	2
 407 0028 0200     		.short	2
 408 002a 0300     		.short	3
 409 002c 0300     		.short	3
 410 002e 0300     		.short	3
 411 0030 0300     		.short	3
 412 0032 0300     		.short	3
 413 0034 0300     		.short	3
 414 0036 0300     		.short	3
 415 0038 0400     		.short	4
ARM GAS  C:\Users\DHEERA~1\AppData\Local\Temp\ccEinFAv.s 			page 13


 416 003a 0400     		.short	4
 417 003c 0400     		.short	4
 418 003e 0400     		.short	4
 419 0040 0400     		.short	4
 420 0042 0400     		.short	4
 421 0044 0500     		.short	5
 422 0046 0500     		.short	5
 423 0048 0500     		.short	5
 424 004a 0500     		.short	5
 425 004c 0500     		.short	5
 426 004e 0600     		.short	6
 427 0050 0600     		.short	6
 428 0052 0600     		.short	6
 429 0054 0600     		.short	6
 430 0056 0700     		.short	7
 431 0058 0700     		.short	7
 432 005a 0700     		.short	7
 433 005c 0800     		.short	8
 434 005e 0800     		.short	8
 435 0060 0800     		.short	8
 436 0062 0900     		.short	9
 437 0064 0900     		.short	9
 438 0066 0A00     		.short	10
 439 0068 0A00     		.short	10
 440 006a 0A00     		.short	10
 441 006c 0B00     		.short	11
 442 006e 0B00     		.short	11
 443 0070 0C00     		.short	12
 444 0072 0C00     		.short	12
 445 0074 0D00     		.short	13
 446 0076 0D00     		.short	13
 447 0078 0E00     		.short	14
 448 007a 0F00     		.short	15
 449 007c 0F00     		.short	15
 450 007e 1000     		.short	16
 451 0080 1100     		.short	17
 452 0082 1100     		.short	17
 453 0084 1200     		.short	18
 454 0086 1300     		.short	19
 455 0088 1400     		.short	20
 456 008a 1500     		.short	21
 457 008c 1600     		.short	22
 458 008e 1700     		.short	23
 459 0090 1800     		.short	24
 460 0092 1900     		.short	25
 461 0094 1A00     		.short	26
 462 0096 1B00     		.short	27
 463 0098 1C00     		.short	28
 464 009a 1D00     		.short	29
 465 009c 1F00     		.short	31
 466 009e 2000     		.short	32
 467 00a0 2100     		.short	33
 468 00a2 2300     		.short	35
 469 00a4 2400     		.short	36
 470 00a6 2600     		.short	38
 471 00a8 2800     		.short	40
 472 00aa 2900     		.short	41
ARM GAS  C:\Users\DHEERA~1\AppData\Local\Temp\ccEinFAv.s 			page 14


 473 00ac 2B00     		.short	43
 474 00ae 2D00     		.short	45
 475 00b0 2F00     		.short	47
 476 00b2 3100     		.short	49
 477 00b4 3400     		.short	52
 478 00b6 3600     		.short	54
 479 00b8 3800     		.short	56
 480 00ba 3B00     		.short	59
 481 00bc 3D00     		.short	61
 482 00be 4000     		.short	64
 483 00c0 4300     		.short	67
 484 00c2 4600     		.short	70
 485 00c4 4900     		.short	73
 486 00c6 4C00     		.short	76
 487 00c8 4F00     		.short	79
 488 00ca 5300     		.short	83
 489 00cc 5700     		.short	87
 490 00ce 5B00     		.short	91
 491 00d0 5F00     		.short	95
 492 00d2 6300     		.short	99
 493 00d4 6700     		.short	103
 494 00d6 6C00     		.short	108
 495 00d8 7000     		.short	112
 496 00da 7500     		.short	117
 497 00dc 7B00     		.short	123
 498 00de 8000     		.short	128
 499 00e0 8600     		.short	134
 500 00e2 8C00     		.short	140
 501 00e4 9200     		.short	146
 502 00e6 9800     		.short	152
 503 00e8 9F00     		.short	159
 504 00ea A600     		.short	166
 505 00ec AD00     		.short	173
 506 00ee B500     		.short	181
 507 00f0 BD00     		.short	189
 508 00f2 C500     		.short	197
 509 00f4 CE00     		.short	206
 510 00f6 D700     		.short	215
 511 00f8 E100     		.short	225
 512 00fa EB00     		.short	235
 513 00fc F500     		.short	245
 514 00fe 0001     		.short	256
 515 0100 0B01     		.short	267
 516 0102 1701     		.short	279
 517 0104 2401     		.short	292
 518 0106 3001     		.short	304
 519 0108 3E01     		.short	318
 520 010a 4C01     		.short	332
 521 010c 5B01     		.short	347
 522 010e 6A01     		.short	362
 523 0110 7A01     		.short	378
 524 0112 8B01     		.short	395
 525 0114 9C01     		.short	412
 526 0116 AF01     		.short	431
 527 0118 C201     		.short	450
 528 011a D601     		.short	470
 529 011c EA01     		.short	490
ARM GAS  C:\Users\DHEERA~1\AppData\Local\Temp\ccEinFAv.s 			page 15


 530 011e 0002     		.short	512
 531 0120 1702     		.short	535
 532 0122 2E02     		.short	558
 533 0124 4702     		.short	583
 534 0126 6102     		.short	609
 535 0128 7C02     		.short	636
 536 012a 9802     		.short	664
 537 012c B502     		.short	693
 538 012e D402     		.short	724
 539 0130 F402     		.short	756
 540 0132 1603     		.short	790
 541 0134 3903     		.short	825
 542 0136 5D03     		.short	861
 543 0138 8303     		.short	899
 544 013a AB03     		.short	939
 545 013c D503     		.short	981
 546 013e 0004     		.short	1024
 547 0140 2D04     		.short	1069
 548 0142 5D04     		.short	1117
 549 0144 8E04     		.short	1166
 550 0146 C204     		.short	1218
 551 0148 F804     		.short	1272
 552 014a 3005     		.short	1328
 553 014c 6B05     		.short	1387
 554 014e A805     		.short	1448
 555 0150 E805     		.short	1512
 556 0152 2B06     		.short	1579
 557 0154 7106     		.short	1649
 558 0156 BA06     		.short	1722
 559 0158 0607     		.short	1798
 560 015a 5607     		.short	1878
 561 015c A907     		.short	1961
 562 015e 0008     		.short	2048
 563 0160 5B08     		.short	2139
 564 0162 B908     		.short	2233
 565 0164 1C09     		.short	2332
 566 0166 8309     		.short	2435
 567 0168 EF09     		.short	2543
 568 016a 600A     		.short	2656
 569 016c D50A     		.short	2773
 570 016e 500B     		.short	2896
 571 0170 D10B     		.short	3025
 572 0172 560C     		.short	3158
 573 0174 E20C     		.short	3298
 574 0176 740D     		.short	3444
 575 0178 0D0E     		.short	3597
 576 017a AC0E     		.short	3756
 577 017c 520F     		.short	3922
 578 017e 0010     		.short	4096
 579 0180 B510     		.short	4277
 580 0182 7311     		.short	4467
 581 0184 3812     		.short	4664
 582 0186 0713     		.short	4871
 583 0188 DF13     		.short	5087
 584 018a C014     		.short	5312
 585 018c AB15     		.short	5547
 586 018e A116     		.short	5793
ARM GAS  C:\Users\DHEERA~1\AppData\Local\Temp\ccEinFAv.s 			page 16


 587 0190 A117     		.short	6049
 588 0192 AD18     		.short	6317
 589 0194 C419     		.short	6596
 590 0196 E91A     		.short	6889
 591 0198 1A1C     		.short	7194
 592 019a 581D     		.short	7512
 593 019c A51E     		.short	7845
 594 019e 0020     		.short	8192
 595 01a0 6B21     		.short	8555
 596 01a2 E522     		.short	8933
 597 01a4 7124     		.short	9329
 598 01a6 0E26     		.short	9742
 599 01a8 BD27     		.short	10173
 600 01aa 8029     		.short	10624
 601 01ac 562B     		.short	11094
 602 01ae 412D     		.short	11585
 603 01b0 422F     		.short	12098
 604 01b2 5A31     		.short	12634
 605 01b4 8933     		.short	13193
 606 01b6 D135     		.short	13777
 607 01b8 3338     		.short	14387
 608 01ba B03A     		.short	15024
 609 01bc 493D     		.short	15689
 610 01be 0040     		.short	16384
 611 01c0 D542     		.short	17109
 612 01c2 CB45     		.short	17867
 613 01c4 E248     		.short	18658
 614 01c6 1C4C     		.short	19484
 615 01c8 7A4F     		.short	20346
 616 01ca FF52     		.short	21247
 617 01cc AC56     		.short	22188
 618 01ce 825A     		.short	23170
 619 01d0 845E     		.short	24196
 620 01d2 B362     		.short	25267
 621 01d4 1267     		.short	26386
 622 01d6 A26B     		.short	27554
 623 01d8 6670     		.short	28774
 624 01da 6075     		.short	30048
 625 01dc 927A     		.short	31378
 626 01de 0080     		.short	-32768
 627 01e0 AA85     		.short	-31318
 628 01e2 958B     		.short	-29803
 629 01e4 C391     		.short	-28221
 630 01e6 3798     		.short	-26569
 631 01e8 F59E     		.short	-24843
 632 01ea FEA5     		.short	-23042
 633 01ec 58AD     		.short	-21160
 634 01ee 04B5     		.short	-19196
 635 01f0 08BD     		.short	-17144
 636 01f2 66C5     		.short	-15002
 637 01f4 24CE     		.short	-12764
 638 01f6 44D7     		.short	-10428
 639 01f8 CCE0     		.short	-7988
 640 01fa C0EA     		.short	-5440
 641 01fc 25F5     		.short	-2779
 642 01fe FFFF     		.short	-1
 643              		.bss
ARM GAS  C:\Users\DHEERA~1\AppData\Local\Temp\ccEinFAv.s 			page 17


 644              		.align	2
 645              		.set	.LANCHOR0,. + 0
 646              		.type	LED__state, %object
 647              		.size	LED__state, 3
 648              	LED__state:
 649 0000 000000   		.space	3
 650              		.text
 651              	.Letext0:
 652              		.file 2 "d:\\psoc creator\\4.4\\psoc creator\\import\\gnu\\arm\\5.4.1\\arm-none-eabi\\include\\mac
 653              		.file 3 "d:\\psoc creator\\4.4\\psoc creator\\import\\gnu\\arm\\5.4.1\\arm-none-eabi\\include\\sys
 654              		.file 4 "Generated_Source\\PSoC5/cytypes.h"
 655              		.file 5 "Generated_Source\\PSoC5/ErikaOS_1_common_ee_types.inc"
 656              		.file 6 "Generated_Source\\PSoC5/ErikaOS_1_cortex_mx_ee_cpu.inc"
 657              		.file 7 "sources\\bsw\\global.h"
 658              		.file 8 "sources\\bsw\\led.h"
 659              		.file 9 "Generated_Source\\PSoC5/ErikaOS_1_ee_oo_intfunc.inc"
 660              		.file 10 "Generated_Source\\PSoC5/ErikaOS_1_cortex_mx_ee_context.inc"
 661              		.file 11 "Generated_Source\\PSoC5/ErikaOS_1_common_ee_primitives.inc"
 662              		.file 12 "Generated_Source\\PSoC5/core_cm3.h"
 663              		.file 13 "Generated_Source\\PSoC5/LED_red.h"
 664              		.file 14 "Generated_Source\\PSoC5/RGB_PWM_blue.h"
 665              		.file 15 "Generated_Source\\PSoC5/RGB_PWM_green.h"
 666              		.file 16 "Generated_Source\\PSoC5/RGB_PWM_red.h"