ARM GAS  C:\Users\DHEERA~1\AppData\Local\Temp\ccY1rsZt.s 			page 1


   1              		.syntax unified
   2              		.cpu cortex-m3
   3              		.fpu softvfp
   4              		.eabi_attribute 20, 1
   5              		.eabi_attribute 21, 1
   6              		.eabi_attribute 23, 3
   7              		.eabi_attribute 24, 1
   8              		.eabi_attribute 25, 1
   9              		.eabi_attribute 26, 1
  10              		.eabi_attribute 30, 1
  11              		.eabi_attribute 34, 1
  12              		.eabi_attribute 18, 4
  13              		.thumb
  14              		.syntax unified
  15              		.file	"swc_engine.c"
  16              		.text
  17              	.Ltext0:
  18              		.cfi_sections	.debug_frame
  19              		.section	.text.ENGINE_setEngine_run,"ax",%progbits
  20              		.align	2
  21              		.global	ENGINE_setEngine_run
  22              		.thumb
  23              		.thumb_func
  24              		.type	ENGINE_setEngine_run, %function
  25              	ENGINE_setEngine_run:
  26              	.LFB154:
  27              		.file 1 "sources\\asw\\swc_engine.c"
   1:sources\asw/swc_engine.c **** /*
   2:sources\asw/swc_engine.c ****  * Filename: swc_engine.c
   3:sources\asw/swc_engine.c ****  *
   4:sources\asw/swc_engine.c ****  * Author: Autogenerated by H-DA RTE Generator, (c) Prof. Fromm
   5:sources\asw/swc_engine.c ****  *
   6:sources\asw/swc_engine.c ****  * description: Software component
   7:sources\asw/swc_engine.c ****  * name: swc_engine
   8:sources\asw/swc_engine.c ****  * shortname: engine
   9:sources\asw/swc_engine.c ****  *
  10:sources\asw/swc_engine.c ****  */
  11:sources\asw/swc_engine.c **** 
  12:sources\asw/swc_engine.c **** #include "project.h"
  13:sources\asw/swc_engine.c **** #include "global.h"
  14:sources\asw/swc_engine.c **** #include "rte.h"
  15:sources\asw/swc_engine.c **** #include "rte_types.h"
  16:sources\asw/swc_engine.c **** #include "swc_engine.h"
  17:sources\asw/swc_engine.c **** #include "WatchDogTimer.h"
  18:sources\asw/swc_engine.c **** 
  19:sources\asw/swc_engine.c **** 
  20:sources\asw/swc_engine.c **** 
  21:sources\asw/swc_engine.c **** /* USER CODE START SWC_ENGINE_INCLUDE */
  22:sources\asw/swc_engine.c **** 
  23:sources\asw/swc_engine.c **** /* USER CODE END SWC_ENGINE_INCLUDE */
  24:sources\asw/swc_engine.c **** 
  25:sources\asw/swc_engine.c **** 
  26:sources\asw/swc_engine.c **** #include "sp_common.h"
  27:sources\asw/swc_engine.c **** 
  28:sources\asw/swc_engine.c **** /* USER CODE START SWC_ENGINE_USERDEFINITIONS */
  29:sources\asw/swc_engine.c **** 
  30:sources\asw/swc_engine.c **** /* USER CODE END SWC_ENGINE_USERDEFINITIONS */
ARM GAS  C:\Users\DHEERA~1\AppData\Local\Temp\ccY1rsZt.s 			page 2


  31:sources\asw/swc_engine.c **** 
  32:sources\asw/swc_engine.c **** 
  33:sources\asw/swc_engine.c **** 
  34:sources\asw/swc_engine.c **** /*
  35:sources\asw/swc_engine.c ****  * component: swc_engine
  36:sources\asw/swc_engine.c ****  * cycletime: 100
  37:sources\asw/swc_engine.c ****  * description: Runnable
  38:sources\asw/swc_engine.c ****  * events: 
  39:sources\asw/swc_engine.c ****  * name: ENGINE_setEngine_run
  40:sources\asw/swc_engine.c ****  * shortname: setEngine
  41:sources\asw/swc_engine.c ****  * signalIN: so_speed
  42:sources\asw/swc_engine.c ****  * signalOUT: so_engine
  43:sources\asw/swc_engine.c ****  * task: tsk_io
  44:sources\asw/swc_engine.c ****  */
  45:sources\asw/swc_engine.c **** void ENGINE_setEngine_run(RTE_event ev)
  46:sources\asw/swc_engine.c **** {
  28              		.loc 1 46 0
  29              		.cfi_startproc
  30              		@ args = 0, pretend = 0, frame = 0
  31              		@ frame_needed = 0, uses_anonymous_args = 0
  32              	.LVL0:
  33 0000 38B5     		push	{r3, r4, r5, lr}
  34              		.cfi_def_cfa_offset 16
  35              		.cfi_offset 3, -16
  36              		.cfi_offset 4, -12
  37              		.cfi_offset 5, -8
  38              		.cfi_offset 14, -4
  47:sources\asw/swc_engine.c **** 	/* USER CODE START ENGINE_setEngine_run */
  48:sources\asw/swc_engine.c ****     SC_ENGINE_data_t engineSpeedValue = SC_ENGINE_INIT_DATA;
  39              		.loc 1 48 0
  40 0002 4FF00001 		mov	r1, #0
  41              	.LVL1:
  42              	.LBB11:
  43              	.LBB12:
  44              		.file 2 ".\\sources\\rte/sc_speed.h"
   1:.\sources\rte/sc_speed.h **** 
   2:.\sources\rte/sc_speed.h **** 
   3:.\sources\rte/sc_speed.h **** /**
   4:.\sources\rte/sc_speed.h ****  *  file    SC_SPEED_signal.h
   5:.\sources\rte/sc_speed.h ****  *
   6:.\sources\rte/sc_speed.h ****  *  brief   signal base class for signal sc_speed
   7:.\sources\rte/sc_speed.h ****  *
   8:.\sources\rte/sc_speed.h ****  *  author  Autogenerated, Peter Fromm       <peter.fromm@h-da.de>
   9:.\sources\rte/sc_speed.h ****  *
  10:.\sources\rte/sc_speed.h ****  * description: Any speed data type, eg: control, target, current
  11:.\sources\rte/sc_speed.h ****  * name: sc_speed
  12:.\sources\rte/sc_speed.h ****  * shortname: speed
  13:.\sources\rte/sc_speed.h ****  *
  14:.\sources\rte/sc_speed.h ****  */
  15:.\sources\rte/sc_speed.h **** 
  16:.\sources\rte/sc_speed.h **** 
  17:.\sources\rte/sc_speed.h **** 
  18:.\sources\rte/sc_speed.h **** #ifndef SC_SPEED_SIGNAL_H_INCLUDED
  19:.\sources\rte/sc_speed.h **** #define SC_SPEED_SIGNAL_H_INCLUDED
  20:.\sources\rte/sc_speed.h **** 
  21:.\sources\rte/sc_speed.h **** /*================================================[ public includes  ]=============================
  22:.\sources\rte/sc_speed.h **** #include "global.h"
ARM GAS  C:\Users\DHEERA~1\AppData\Local\Temp\ccY1rsZt.s 			page 3


  23:.\sources\rte/sc_speed.h **** #include "project.h"
  24:.\sources\rte/sc_speed.h **** #include "rte.h"
  25:.\sources\rte/sc_speed.h **** #include "rte_types.h"
  26:.\sources\rte/sc_speed.h **** 
  27:.\sources\rte/sc_speed.h **** #include "sc_speed_type.h"
  28:.\sources\rte/sc_speed.h **** 
  29:.\sources\rte/sc_speed.h **** 
  30:.\sources\rte/sc_speed.h **** /**************************************************************************************************
  31:.\sources\rte/sc_speed.h **** /* The driver API block																						*/
  32:.\sources\rte/sc_speed.h **** /**************************************************************************************************
  33:.\sources\rte/sc_speed.h ****                                                                                                    
  34:.\sources\rte/sc_speed.h **** /**
  35:.\sources\rte/sc_speed.h ****  *  Definition of function types for driver interfaces.
  36:.\sources\rte/sc_speed.h ****  *  I-Port
  37:.\sources\rte/sc_speed.h ****  */
  38:.\sources\rte/sc_speed.h **** typedef RC_t (*SC_SPEED_driverIn_t)(SC_SPEED_data_t * const);
  39:.\sources\rte/sc_speed.h **** 
  40:.\sources\rte/sc_speed.h **** /**
  41:.\sources\rte/sc_speed.h ****  *  Definition of function types for driver interfaces.
  42:.\sources\rte/sc_speed.h ****  *  O-Port
  43:.\sources\rte/sc_speed.h ****  */
  44:.\sources\rte/sc_speed.h **** typedef RC_t (*SC_SPEED_driverOut_t)( const SC_SPEED_data_t * const);
  45:.\sources\rte/sc_speed.h **** 
  46:.\sources\rte/sc_speed.h **** 
  47:.\sources\rte/sc_speed.h **** /**************************************************************************************************
  48:.\sources\rte/sc_speed.h **** /* The signal configuration API block																				*/
  49:.\sources\rte/sc_speed.h **** /**************************************************************************************************
  50:.\sources\rte/sc_speed.h **** 
  51:.\sources\rte/sc_speed.h **** /**
  52:.\sources\rte/sc_speed.h ****  * Instances of the struct SC_SPEED_cfg_t represent the signal object configuration.
  53:.\sources\rte/sc_speed.h ****  */
  54:.\sources\rte/sc_speed.h **** struct SC_SPEED_cfg_s
  55:.\sources\rte/sc_speed.h **** {
  56:.\sources\rte/sc_speed.h ****     /**
  57:.\sources\rte/sc_speed.h ****      * Function pointer to the input driver
  58:.\sources\rte/sc_speed.h ****      */
  59:.\sources\rte/sc_speed.h ****     SC_SPEED_driverIn_t const inDriver;
  60:.\sources\rte/sc_speed.h **** 
  61:.\sources\rte/sc_speed.h ****     /**
  62:.\sources\rte/sc_speed.h ****      * Function pointer to the output driver table
  63:.\sources\rte/sc_speed.h ****      */
  64:.\sources\rte/sc_speed.h ****    SC_SPEED_driverOut_t const outDriver;
  65:.\sources\rte/sc_speed.h ****    
  66:.\sources\rte/sc_speed.h ****     /**
  67:.\sources\rte/sc_speed.h ****      * Event onUpdate
  68:.\sources\rte/sc_speed.h ****      */
  69:.\sources\rte/sc_speed.h ****     EventMaskType const evOnUpdate;
  70:.\sources\rte/sc_speed.h ****     
  71:.\sources\rte/sc_speed.h ****     
  72:.\sources\rte/sc_speed.h ****     /**
  73:.\sources\rte/sc_speed.h ****      * Event onError
  74:.\sources\rte/sc_speed.h ****      */
  75:.\sources\rte/sc_speed.h ****     EventMaskType const evOnError;
  76:.\sources\rte/sc_speed.h ****     
  77:.\sources\rte/sc_speed.h ****     /**
  78:.\sources\rte/sc_speed.h ****      * Task Count onUpdate
  79:.\sources\rte/sc_speed.h ****      */
ARM GAS  C:\Users\DHEERA~1\AppData\Local\Temp\ccY1rsZt.s 			page 4


  80:.\sources\rte/sc_speed.h ****     size_t const onUpdateTaskCount;
  81:.\sources\rte/sc_speed.h **** 
  82:.\sources\rte/sc_speed.h ****     /**
  83:.\sources\rte/sc_speed.h ****      * Task List onUpdate
  84:.\sources\rte/sc_speed.h ****      */
  85:.\sources\rte/sc_speed.h ****     TaskTypeArray* const onUpdateTasks;
  86:.\sources\rte/sc_speed.h ****     
  87:.\sources\rte/sc_speed.h ****     /**
  88:.\sources\rte/sc_speed.h ****      * Task Count onError
  89:.\sources\rte/sc_speed.h ****      */
  90:.\sources\rte/sc_speed.h ****     size_t const onErrorTaskCount;
  91:.\sources\rte/sc_speed.h **** 
  92:.\sources\rte/sc_speed.h ****     /**
  93:.\sources\rte/sc_speed.h ****      * Task List onError
  94:.\sources\rte/sc_speed.h ****      */
  95:.\sources\rte/sc_speed.h ****     TaskTypeArray* const onErrorTasks;
  96:.\sources\rte/sc_speed.h **** 	
  97:.\sources\rte/sc_speed.h **** 	
  98:.\sources\rte/sc_speed.h **** 	/**
  99:.\sources\rte/sc_speed.h **** 	 * Ressourse is active? We need an additional boolean as a ressource value 0 is valid.
 100:.\sources\rte/sc_speed.h **** 	 */
 101:.\sources\rte/sc_speed.h **** 	 boolean_t const resourceActive;
 102:.\sources\rte/sc_speed.h **** 	 
 103:.\sources\rte/sc_speed.h **** 	/**
 104:.\sources\rte/sc_speed.h **** 	 * Ressourse 
 105:.\sources\rte/sc_speed.h **** 	 */
 106:.\sources\rte/sc_speed.h **** 	 ResourceType const resource;
 107:.\sources\rte/sc_speed.h **** 
 108:.\sources\rte/sc_speed.h **** };                                                                                                 
 109:.\sources\rte/sc_speed.h **** typedef const struct SC_SPEED_cfg_s SC_SPEED_cfg_t;
 110:.\sources\rte/sc_speed.h ****                               
 111:.\sources\rte/sc_speed.h **** /**************************************************************************************************
 112:.\sources\rte/sc_speed.h **** /* The data interface block																							*/
 113:.\sources\rte/sc_speed.h **** /**************************************************************************************************
 114:.\sources\rte/sc_speed.h **** 
 115:.\sources\rte/sc_speed.h ****                                                                                                    
 116:.\sources\rte/sc_speed.h **** 							  
 117:.\sources\rte/sc_speed.h **** /**
 118:.\sources\rte/sc_speed.h ****  * Instances of the struct SC_SPEED_t represent the signal objects.
 119:.\sources\rte/sc_speed.h ****  * A signal object contains the current application value 'value' as well as relevant meta data.
 120:.\sources\rte/sc_speed.h ****  */
 121:.\sources\rte/sc_speed.h **** struct SC_SPEED_s
 122:.\sources\rte/sc_speed.h **** {                                                                                                  
 123:.\sources\rte/sc_speed.h **** 
 124:.\sources\rte/sc_speed.h **** 	/**
 125:.\sources\rte/sc_speed.h **** 	 * Data buffer for the application value
 126:.\sources\rte/sc_speed.h **** 	 */
 127:.\sources\rte/sc_speed.h ****     SC_SPEED_data_t value;
 128:.\sources\rte/sc_speed.h **** 
 129:.\sources\rte/sc_speed.h ****     /**
 130:.\sources\rte/sc_speed.h ****      * Current signal status
 131:.\sources\rte/sc_speed.h ****      */
 132:.\sources\rte/sc_speed.h ****     RTE_signalStatus_t status;
 133:.\sources\rte/sc_speed.h **** 
 134:.\sources\rte/sc_speed.h ****     /**
 135:.\sources\rte/sc_speed.h ****      * Current age of the signal (in calling cycles)
 136:.\sources\rte/sc_speed.h ****      */
ARM GAS  C:\Users\DHEERA~1\AppData\Local\Temp\ccY1rsZt.s 			page 5


 137:.\sources\rte/sc_speed.h ****     uint32_t age;
 138:.\sources\rte/sc_speed.h **** 
 139:.\sources\rte/sc_speed.h ****     /**
 140:.\sources\rte/sc_speed.h ****      * Pointer to the signal configuration
 141:.\sources\rte/sc_speed.h ****      */
 142:.\sources\rte/sc_speed.h **** 	const SC_SPEED_cfg_t * const    pSigCfg;
 143:.\sources\rte/sc_speed.h **** 
 144:.\sources\rte/sc_speed.h **** };                                                                                                 
 145:.\sources\rte/sc_speed.h **** typedef struct SC_SPEED_s SC_SPEED_t;
 146:.\sources\rte/sc_speed.h **** 
 147:.\sources\rte/sc_speed.h **** /**************************************************************************************************
 148:.\sources\rte/sc_speed.h **** /* Signal initialisation   																							*/
 149:.\sources\rte/sc_speed.h **** /**************************************************************************************************
 150:.\sources\rte/sc_speed.h **** 
 151:.\sources\rte/sc_speed.h **** /**
 152:.\sources\rte/sc_speed.h ****  * Initializes a signal instance with a passed init value.
 153:.\sources\rte/sc_speed.h ****  * Depending on the configured conversion or scaling function the raw_value will be calculated.
 154:.\sources\rte/sc_speed.h ****  * Signal status will change from RTE_SIGNALSTATUS_STARTUP to RTE_SIGNALSTATUS_INITIALIZED.
 155:.\sources\rte/sc_speed.h ****  *
 156:.\sources\rte/sc_speed.h ****  * @param  SC_SPEED_t * const signal: Pointer to the signal object which will be initialised
 157:.\sources\rte/sc_speed.h ****  * @return RC_t: standard return code, currently only RC_SUCCESS
 158:.\sources\rte/sc_speed.h ****  *
 159:.\sources\rte/sc_speed.h ****  **/
 160:.\sources\rte/sc_speed.h **** inline RC_t RTE_SC_SPEED_init( SC_SPEED_t * const signal )
 161:.\sources\rte/sc_speed.h **** {                                                                                                  
 162:.\sources\rte/sc_speed.h **** 
 163:.\sources\rte/sc_speed.h ****    RC_t ret = RC_SUCCESS;
 164:.\sources\rte/sc_speed.h **** 
 165:.\sources\rte/sc_speed.h ****    //Set value and raw value
 166:.\sources\rte/sc_speed.h ****    signal->value  = SC_SPEED_INIT_DATA;
 167:.\sources\rte/sc_speed.h ****    signal->age    = 0;
 168:.\sources\rte/sc_speed.h ****    signal->status = RTE_SIGNALSTATUS_INITIALIZED;
 169:.\sources\rte/sc_speed.h **** 
 170:.\sources\rte/sc_speed.h ****    return ret;
 171:.\sources\rte/sc_speed.h **** }
 172:.\sources\rte/sc_speed.h **** 
 173:.\sources\rte/sc_speed.h **** /**************************************************************************************************
 174:.\sources\rte/sc_speed.h **** /* Status and timeout control																						*/
 175:.\sources\rte/sc_speed.h **** /**************************************************************************************************
 176:.\sources\rte/sc_speed.h **** 
 177:.\sources\rte/sc_speed.h **** /**
 178:.\sources\rte/sc_speed.h ****  *  Returns the current signal status of the passed signal instance.
 179:.\sources\rte/sc_speed.h ****  *
 180:.\sources\rte/sc_speed.h ****  * @param  SC_SPEED_t * const signal: Pointer to the signal object
 181:.\sources\rte/sc_speed.h ****  * @return  sig_status_t: The current signal status
 182:.\sources\rte/sc_speed.h ****  *
 183:.\sources\rte/sc_speed.h ****  **/
 184:.\sources\rte/sc_speed.h **** inline RTE_signalStatus_t RTE_SC_SPEED_getStatus( const SC_SPEED_t * const signal )
 185:.\sources\rte/sc_speed.h **** {
 186:.\sources\rte/sc_speed.h ****    return signal->status;
 187:.\sources\rte/sc_speed.h **** }
 188:.\sources\rte/sc_speed.h **** 
 189:.\sources\rte/sc_speed.h **** 
 190:.\sources\rte/sc_speed.h **** /**
 191:.\sources\rte/sc_speed.h ****  *  Sets a new signal status of the passed signal instance by passing the new status.
 192:.\sources\rte/sc_speed.h ****  *
 193:.\sources\rte/sc_speed.h ****  * @param  SC_SPEED_t * const signal: Pointer to the signal object
ARM GAS  C:\Users\DHEERA~1\AppData\Local\Temp\ccY1rsZt.s 			page 6


 194:.\sources\rte/sc_speed.h ****  * @param  const sig_status_t status: New signal status
 195:.\sources\rte/sc_speed.h ****  * @return RC_t: standard return code, currently only RC_SUCCESS
 196:.\sources\rte/sc_speed.h ****  *
 197:.\sources\rte/sc_speed.h ****  */
 198:.\sources\rte/sc_speed.h **** inline RC_t RTE_SC_SPEED_setStatus( SC_SPEED_t * const signal, const RTE_signalStatus_t status )
 199:.\sources\rte/sc_speed.h **** {
 200:.\sources\rte/sc_speed.h ****    signal->status = status;
 201:.\sources\rte/sc_speed.h ****    size_t taskNum=0;
 202:.\sources\rte/sc_speed.h ****    
 203:.\sources\rte/sc_speed.h ****    //Fire error events in case of invalid state
 204:.\sources\rte/sc_speed.h ****    if (signal->status == RTE_SIGNALSTATUS_INVALID)
 205:.\sources\rte/sc_speed.h ****    {
 206:.\sources\rte/sc_speed.h **** 	    //Pointer to the Taskarray, containing the tasks receiving the onUpdate events
 207:.\sources\rte/sc_speed.h **** 		TaskTypeArray* pTaskArray = signal->pSigCfg->onErrorTasks;
 208:.\sources\rte/sc_speed.h **** 
 209:.\sources\rte/sc_speed.h **** 		if (0 != signal->pSigCfg->evOnError && NULL != pTaskArray){
 210:.\sources\rte/sc_speed.h **** 			for( taskNum=0 ; taskNum < signal->pSigCfg->onErrorTaskCount ;taskNum++){
 211:.\sources\rte/sc_speed.h **** 				TaskType task = (*pTaskArray)[taskNum];
 212:.\sources\rte/sc_speed.h **** 				SetEvent( task, signal->pSigCfg->evOnError);
 213:.\sources\rte/sc_speed.h **** 			}
 214:.\sources\rte/sc_speed.h **** 		}
 215:.\sources\rte/sc_speed.h ****    }
 216:.\sources\rte/sc_speed.h ****    
 217:.\sources\rte/sc_speed.h ****    return RC_SUCCESS;
 218:.\sources\rte/sc_speed.h **** }
 219:.\sources\rte/sc_speed.h **** 
 220:.\sources\rte/sc_speed.h **** 
 221:.\sources\rte/sc_speed.h **** /**
 222:.\sources\rte/sc_speed.h ****  * Returns the count of refreshing trials (refresh, set or set_raw) that failed.
 223:.\sources\rte/sc_speed.h ****  * Prerquisite: The signal is refreshed cyclically
 224:.\sources\rte/sc_speed.h ****  *
 225:.\sources\rte/sc_speed.h ****  * @param  SC_SPEED_t * const signal: Pointer to the signal object
 226:.\sources\rte/sc_speed.h ****  * @return uint32_t: Number of cycles since the signal has been updated for the last time
 227:.\sources\rte/sc_speed.h ****  */
 228:.\sources\rte/sc_speed.h **** inline uint32_t RTE_SC_SPEED_getAge( const SC_SPEED_t * const signal )
 229:.\sources\rte/sc_speed.h **** {
 230:.\sources\rte/sc_speed.h ****    return signal->age;
  45              		.loc 2 230 0
  46 0006 154B     		ldr	r3, .L9
  47 0008 5B68     		ldr	r3, [r3, #4]
  48              	.LVL2:
  49              	.LBE12:
  50              	.LBE11:
  49:sources\asw/swc_engine.c ****     RC_t ret = RC_SUCCESS;
  50:sources\asw/swc_engine.c ****     
  51:sources\asw/swc_engine.c ****     if(RTE_SC_SPEED_getAge(&SO_SPEED_signal) < 10) 
  51              		.loc 1 51 0
  52 000a 092B     		cmp	r3, #9
  53 000c 01D8     		bhi	.L2
  54              	.LVL3:
  52:sources\asw/swc_engine.c ****     {
  53:sources\asw/swc_engine.c ****         engineSpeedValue.engineSpeed = RTE_SC_SPEED_get(&SO_SPEED_signal).speed;
  55              		.loc 1 53 0
  56 000e 134B     		ldr	r3, .L9
  57 0010 1978     		ldrb	r1, [r3]	@ zero_extendqisi2
  58              	.L2:
  59              	.LVL4:
ARM GAS  C:\Users\DHEERA~1\AppData\Local\Temp\ccY1rsZt.s 			page 7


  60              	.LBB13:
  61              	.LBB14:
  62              		.file 3 ".\\sources\\rte/sc_engine.h"
   1:.\sources\rte/sc_engine.h **** 
   2:.\sources\rte/sc_engine.h **** 
   3:.\sources\rte/sc_engine.h **** /**
   4:.\sources\rte/sc_engine.h ****  *  file    SC_ENGINE_signal.h
   5:.\sources\rte/sc_engine.h ****  *
   6:.\sources\rte/sc_engine.h ****  *  brief   signal base class for signal sc_engine
   7:.\sources\rte/sc_engine.h ****  *
   8:.\sources\rte/sc_engine.h ****  *  author  Autogenerated, Peter Fromm       <peter.fromm@h-da.de>
   9:.\sources\rte/sc_engine.h ****  *
  10:.\sources\rte/sc_engine.h ****  * description: Signalclass
  11:.\sources\rte/sc_engine.h ****  * name: sc_engine
  12:.\sources\rte/sc_engine.h ****  * shortname: engine
  13:.\sources\rte/sc_engine.h ****  *
  14:.\sources\rte/sc_engine.h ****  */
  15:.\sources\rte/sc_engine.h **** 
  16:.\sources\rte/sc_engine.h **** 
  17:.\sources\rte/sc_engine.h **** 
  18:.\sources\rte/sc_engine.h **** #ifndef SC_ENGINE_SIGNAL_H_INCLUDED
  19:.\sources\rte/sc_engine.h **** #define SC_ENGINE_SIGNAL_H_INCLUDED
  20:.\sources\rte/sc_engine.h **** 
  21:.\sources\rte/sc_engine.h **** /*================================================[ public includes  ]=============================
  22:.\sources\rte/sc_engine.h **** #include "global.h"
  23:.\sources\rte/sc_engine.h **** #include "project.h"
  24:.\sources\rte/sc_engine.h **** #include "rte.h"
  25:.\sources\rte/sc_engine.h **** #include "rte_types.h"
  26:.\sources\rte/sc_engine.h **** 
  27:.\sources\rte/sc_engine.h **** #include "sc_engine_type.h"
  28:.\sources\rte/sc_engine.h **** 
  29:.\sources\rte/sc_engine.h **** 
  30:.\sources\rte/sc_engine.h **** /**************************************************************************************************
  31:.\sources\rte/sc_engine.h **** /* The driver API block																						*/
  32:.\sources\rte/sc_engine.h **** /**************************************************************************************************
  33:.\sources\rte/sc_engine.h ****                                                                                                    
  34:.\sources\rte/sc_engine.h **** /**
  35:.\sources\rte/sc_engine.h ****  *  Definition of function types for driver interfaces.
  36:.\sources\rte/sc_engine.h ****  *  I-Port
  37:.\sources\rte/sc_engine.h ****  */
  38:.\sources\rte/sc_engine.h **** typedef RC_t (*SC_ENGINE_driverIn_t)(SC_ENGINE_data_t * const);
  39:.\sources\rte/sc_engine.h **** 
  40:.\sources\rte/sc_engine.h **** /**
  41:.\sources\rte/sc_engine.h ****  *  Definition of function types for driver interfaces.
  42:.\sources\rte/sc_engine.h ****  *  O-Port
  43:.\sources\rte/sc_engine.h ****  */
  44:.\sources\rte/sc_engine.h **** typedef RC_t (*SC_ENGINE_driverOut_t)( const SC_ENGINE_data_t * const);
  45:.\sources\rte/sc_engine.h **** 
  46:.\sources\rte/sc_engine.h **** 
  47:.\sources\rte/sc_engine.h **** /**************************************************************************************************
  48:.\sources\rte/sc_engine.h **** /* The signal configuration API block																				*/
  49:.\sources\rte/sc_engine.h **** /**************************************************************************************************
  50:.\sources\rte/sc_engine.h **** 
  51:.\sources\rte/sc_engine.h **** /**
  52:.\sources\rte/sc_engine.h ****  * Instances of the struct SC_ENGINE_cfg_t represent the signal object configuration.
  53:.\sources\rte/sc_engine.h ****  */
  54:.\sources\rte/sc_engine.h **** struct SC_ENGINE_cfg_s
ARM GAS  C:\Users\DHEERA~1\AppData\Local\Temp\ccY1rsZt.s 			page 8


  55:.\sources\rte/sc_engine.h **** {
  56:.\sources\rte/sc_engine.h ****     /**
  57:.\sources\rte/sc_engine.h ****      * Function pointer to the input driver
  58:.\sources\rte/sc_engine.h ****      */
  59:.\sources\rte/sc_engine.h ****     SC_ENGINE_driverIn_t const inDriver;
  60:.\sources\rte/sc_engine.h **** 
  61:.\sources\rte/sc_engine.h ****     /**
  62:.\sources\rte/sc_engine.h ****      * Function pointer to the output driver table
  63:.\sources\rte/sc_engine.h ****      */
  64:.\sources\rte/sc_engine.h ****    SC_ENGINE_driverOut_t const outDriver;
  65:.\sources\rte/sc_engine.h ****    
  66:.\sources\rte/sc_engine.h ****     /**
  67:.\sources\rte/sc_engine.h ****      * Event onUpdate
  68:.\sources\rte/sc_engine.h ****      */
  69:.\sources\rte/sc_engine.h ****     EventMaskType const evOnUpdate;
  70:.\sources\rte/sc_engine.h ****     
  71:.\sources\rte/sc_engine.h ****     
  72:.\sources\rte/sc_engine.h ****     /**
  73:.\sources\rte/sc_engine.h ****      * Event onError
  74:.\sources\rte/sc_engine.h ****      */
  75:.\sources\rte/sc_engine.h ****     EventMaskType const evOnError;
  76:.\sources\rte/sc_engine.h ****     
  77:.\sources\rte/sc_engine.h ****     /**
  78:.\sources\rte/sc_engine.h ****      * Task Count onUpdate
  79:.\sources\rte/sc_engine.h ****      */
  80:.\sources\rte/sc_engine.h ****     size_t const onUpdateTaskCount;
  81:.\sources\rte/sc_engine.h **** 
  82:.\sources\rte/sc_engine.h ****     /**
  83:.\sources\rte/sc_engine.h ****      * Task List onUpdate
  84:.\sources\rte/sc_engine.h ****      */
  85:.\sources\rte/sc_engine.h ****     TaskTypeArray* const onUpdateTasks;
  86:.\sources\rte/sc_engine.h ****     
  87:.\sources\rte/sc_engine.h ****     /**
  88:.\sources\rte/sc_engine.h ****      * Task Count onError
  89:.\sources\rte/sc_engine.h ****      */
  90:.\sources\rte/sc_engine.h ****     size_t const onErrorTaskCount;
  91:.\sources\rte/sc_engine.h **** 
  92:.\sources\rte/sc_engine.h ****     /**
  93:.\sources\rte/sc_engine.h ****      * Task List onError
  94:.\sources\rte/sc_engine.h ****      */
  95:.\sources\rte/sc_engine.h ****     TaskTypeArray* const onErrorTasks;
  96:.\sources\rte/sc_engine.h **** 	
  97:.\sources\rte/sc_engine.h **** 	
  98:.\sources\rte/sc_engine.h **** 	/**
  99:.\sources\rte/sc_engine.h **** 	 * Ressourse is active? We need an additional boolean as a ressource value 0 is valid.
 100:.\sources\rte/sc_engine.h **** 	 */
 101:.\sources\rte/sc_engine.h **** 	 boolean_t const resourceActive;
 102:.\sources\rte/sc_engine.h **** 	 
 103:.\sources\rte/sc_engine.h **** 	/**
 104:.\sources\rte/sc_engine.h **** 	 * Ressourse 
 105:.\sources\rte/sc_engine.h **** 	 */
 106:.\sources\rte/sc_engine.h **** 	 ResourceType const resource;
 107:.\sources\rte/sc_engine.h **** 
 108:.\sources\rte/sc_engine.h **** };                                                                                                 
 109:.\sources\rte/sc_engine.h **** typedef const struct SC_ENGINE_cfg_s SC_ENGINE_cfg_t;
 110:.\sources\rte/sc_engine.h ****                               
 111:.\sources\rte/sc_engine.h **** /**************************************************************************************************
ARM GAS  C:\Users\DHEERA~1\AppData\Local\Temp\ccY1rsZt.s 			page 9


 112:.\sources\rte/sc_engine.h **** /* The data interface block																							*/
 113:.\sources\rte/sc_engine.h **** /**************************************************************************************************
 114:.\sources\rte/sc_engine.h **** 
 115:.\sources\rte/sc_engine.h ****                                                                                                    
 116:.\sources\rte/sc_engine.h **** 							  
 117:.\sources\rte/sc_engine.h **** /**
 118:.\sources\rte/sc_engine.h ****  * Instances of the struct SC_ENGINE_t represent the signal objects.
 119:.\sources\rte/sc_engine.h ****  * A signal object contains the current application value 'value' as well as relevant meta data.
 120:.\sources\rte/sc_engine.h ****  */
 121:.\sources\rte/sc_engine.h **** struct SC_ENGINE_s
 122:.\sources\rte/sc_engine.h **** {                                                                                                  
 123:.\sources\rte/sc_engine.h **** 
 124:.\sources\rte/sc_engine.h **** 	/**
 125:.\sources\rte/sc_engine.h **** 	 * Data buffer for the application value
 126:.\sources\rte/sc_engine.h **** 	 */
 127:.\sources\rte/sc_engine.h ****     SC_ENGINE_data_t value;
 128:.\sources\rte/sc_engine.h **** 
 129:.\sources\rte/sc_engine.h ****     /**
 130:.\sources\rte/sc_engine.h ****      * Current signal status
 131:.\sources\rte/sc_engine.h ****      */
 132:.\sources\rte/sc_engine.h ****     RTE_signalStatus_t status;
 133:.\sources\rte/sc_engine.h **** 
 134:.\sources\rte/sc_engine.h ****     /**
 135:.\sources\rte/sc_engine.h ****      * Current age of the signal (in calling cycles)
 136:.\sources\rte/sc_engine.h ****      */
 137:.\sources\rte/sc_engine.h ****     uint32_t age;
 138:.\sources\rte/sc_engine.h **** 
 139:.\sources\rte/sc_engine.h ****     /**
 140:.\sources\rte/sc_engine.h ****      * Pointer to the signal configuration
 141:.\sources\rte/sc_engine.h ****      */
 142:.\sources\rte/sc_engine.h **** 	const SC_ENGINE_cfg_t * const    pSigCfg;
 143:.\sources\rte/sc_engine.h **** 
 144:.\sources\rte/sc_engine.h **** };                                                                                                 
 145:.\sources\rte/sc_engine.h **** typedef struct SC_ENGINE_s SC_ENGINE_t;
 146:.\sources\rte/sc_engine.h **** 
 147:.\sources\rte/sc_engine.h **** /**************************************************************************************************
 148:.\sources\rte/sc_engine.h **** /* Signal initialisation   																							*/
 149:.\sources\rte/sc_engine.h **** /**************************************************************************************************
 150:.\sources\rte/sc_engine.h **** 
 151:.\sources\rte/sc_engine.h **** /**
 152:.\sources\rte/sc_engine.h ****  * Initializes a signal instance with a passed init value.
 153:.\sources\rte/sc_engine.h ****  * Depending on the configured conversion or scaling function the raw_value will be calculated.
 154:.\sources\rte/sc_engine.h ****  * Signal status will change from RTE_SIGNALSTATUS_STARTUP to RTE_SIGNALSTATUS_INITIALIZED.
 155:.\sources\rte/sc_engine.h ****  *
 156:.\sources\rte/sc_engine.h ****  * @param  SC_ENGINE_t * const signal: Pointer to the signal object which will be initialised
 157:.\sources\rte/sc_engine.h ****  * @return RC_t: standard return code, currently only RC_SUCCESS
 158:.\sources\rte/sc_engine.h ****  *
 159:.\sources\rte/sc_engine.h ****  **/
 160:.\sources\rte/sc_engine.h **** inline RC_t RTE_SC_ENGINE_init( SC_ENGINE_t * const signal )
 161:.\sources\rte/sc_engine.h **** {                                                                                                  
 162:.\sources\rte/sc_engine.h **** 
 163:.\sources\rte/sc_engine.h ****    RC_t ret = RC_SUCCESS;
 164:.\sources\rte/sc_engine.h **** 
 165:.\sources\rte/sc_engine.h ****    //Set value and raw value
 166:.\sources\rte/sc_engine.h ****    signal->value  = SC_ENGINE_INIT_DATA;
 167:.\sources\rte/sc_engine.h ****    signal->age    = 0;
 168:.\sources\rte/sc_engine.h ****    signal->status = RTE_SIGNALSTATUS_INITIALIZED;
ARM GAS  C:\Users\DHEERA~1\AppData\Local\Temp\ccY1rsZt.s 			page 10


 169:.\sources\rte/sc_engine.h **** 
 170:.\sources\rte/sc_engine.h ****    return ret;
 171:.\sources\rte/sc_engine.h **** }
 172:.\sources\rte/sc_engine.h **** 
 173:.\sources\rte/sc_engine.h **** /**************************************************************************************************
 174:.\sources\rte/sc_engine.h **** /* Status and timeout control																						*/
 175:.\sources\rte/sc_engine.h **** /**************************************************************************************************
 176:.\sources\rte/sc_engine.h **** 
 177:.\sources\rte/sc_engine.h **** /**
 178:.\sources\rte/sc_engine.h ****  *  Returns the current signal status of the passed signal instance.
 179:.\sources\rte/sc_engine.h ****  *
 180:.\sources\rte/sc_engine.h ****  * @param  SC_ENGINE_t * const signal: Pointer to the signal object
 181:.\sources\rte/sc_engine.h ****  * @return  sig_status_t: The current signal status
 182:.\sources\rte/sc_engine.h ****  *
 183:.\sources\rte/sc_engine.h ****  **/
 184:.\sources\rte/sc_engine.h **** inline RTE_signalStatus_t RTE_SC_ENGINE_getStatus( const SC_ENGINE_t * const signal )
 185:.\sources\rte/sc_engine.h **** {
 186:.\sources\rte/sc_engine.h ****    return signal->status;
 187:.\sources\rte/sc_engine.h **** }
 188:.\sources\rte/sc_engine.h **** 
 189:.\sources\rte/sc_engine.h **** 
 190:.\sources\rte/sc_engine.h **** /**
 191:.\sources\rte/sc_engine.h ****  *  Sets a new signal status of the passed signal instance by passing the new status.
 192:.\sources\rte/sc_engine.h ****  *
 193:.\sources\rte/sc_engine.h ****  * @param  SC_ENGINE_t * const signal: Pointer to the signal object
 194:.\sources\rte/sc_engine.h ****  * @param  const sig_status_t status: New signal status
 195:.\sources\rte/sc_engine.h ****  * @return RC_t: standard return code, currently only RC_SUCCESS
 196:.\sources\rte/sc_engine.h ****  *
 197:.\sources\rte/sc_engine.h ****  */
 198:.\sources\rte/sc_engine.h **** inline RC_t RTE_SC_ENGINE_setStatus( SC_ENGINE_t * const signal, const RTE_signalStatus_t status )
 199:.\sources\rte/sc_engine.h **** {
 200:.\sources\rte/sc_engine.h ****    signal->status = status;
 201:.\sources\rte/sc_engine.h ****    size_t taskNum=0;
 202:.\sources\rte/sc_engine.h ****    
 203:.\sources\rte/sc_engine.h ****    //Fire error events in case of invalid state
 204:.\sources\rte/sc_engine.h ****    if (signal->status == RTE_SIGNALSTATUS_INVALID)
 205:.\sources\rte/sc_engine.h ****    {
 206:.\sources\rte/sc_engine.h **** 	    //Pointer to the Taskarray, containing the tasks receiving the onUpdate events
 207:.\sources\rte/sc_engine.h **** 		TaskTypeArray* pTaskArray = signal->pSigCfg->onErrorTasks;
 208:.\sources\rte/sc_engine.h **** 
 209:.\sources\rte/sc_engine.h **** 		if (0 != signal->pSigCfg->evOnError && NULL != pTaskArray){
 210:.\sources\rte/sc_engine.h **** 			for( taskNum=0 ; taskNum < signal->pSigCfg->onErrorTaskCount ;taskNum++){
 211:.\sources\rte/sc_engine.h **** 				TaskType task = (*pTaskArray)[taskNum];
 212:.\sources\rte/sc_engine.h **** 				SetEvent( task, signal->pSigCfg->evOnError);
 213:.\sources\rte/sc_engine.h **** 			}
 214:.\sources\rte/sc_engine.h **** 		}
 215:.\sources\rte/sc_engine.h ****    }
 216:.\sources\rte/sc_engine.h ****    
 217:.\sources\rte/sc_engine.h ****    return RC_SUCCESS;
 218:.\sources\rte/sc_engine.h **** }
 219:.\sources\rte/sc_engine.h **** 
 220:.\sources\rte/sc_engine.h **** 
 221:.\sources\rte/sc_engine.h **** /**
 222:.\sources\rte/sc_engine.h ****  * Returns the count of refreshing trials (refresh, set or set_raw) that failed.
 223:.\sources\rte/sc_engine.h ****  * Prerquisite: The signal is refreshed cyclically
 224:.\sources\rte/sc_engine.h ****  *
 225:.\sources\rte/sc_engine.h ****  * @param  SC_ENGINE_t * const signal: Pointer to the signal object
ARM GAS  C:\Users\DHEERA~1\AppData\Local\Temp\ccY1rsZt.s 			page 11


 226:.\sources\rte/sc_engine.h ****  * @return uint32_t: Number of cycles since the signal has been updated for the last time
 227:.\sources\rte/sc_engine.h ****  */
 228:.\sources\rte/sc_engine.h **** inline uint32_t RTE_SC_ENGINE_getAge( const SC_ENGINE_t * const signal )
 229:.\sources\rte/sc_engine.h **** {
 230:.\sources\rte/sc_engine.h ****    return signal->age;
 231:.\sources\rte/sc_engine.h **** }
 232:.\sources\rte/sc_engine.h **** 
 233:.\sources\rte/sc_engine.h **** /**
 234:.\sources\rte/sc_engine.h ****  * Should be called by application or driver if no new value can be provided.
 235:.\sources\rte/sc_engine.h ****  * @param  SC_ENGINE_t * const signal: Pointer to the signal object
 236:.\sources\rte/sc_engine.h ****  * @param uint32_t increment: incrementvalue, typically in [ms]
 237:.\sources\rte/sc_engine.h ****  * @return void
 238:.\sources\rte/sc_engine.h ****  */
 239:.\sources\rte/sc_engine.h **** inline void RTE_SC_ENGINE_incAge(  SC_ENGINE_t * const signal , uint32_t increment)
 240:.\sources\rte/sc_engine.h **** {
 241:.\sources\rte/sc_engine.h **** 	   //Hack....
 242:.\sources\rte/sc_engine.h **** 	   if ( 0xFFFF0000 > (signal->age + increment) )
 243:.\sources\rte/sc_engine.h **** 	   {
 244:.\sources\rte/sc_engine.h **** 	      signal->age += increment;
 245:.\sources\rte/sc_engine.h **** 	   }
 246:.\sources\rte/sc_engine.h **** }
 247:.\sources\rte/sc_engine.h **** 
 248:.\sources\rte/sc_engine.h **** 
 249:.\sources\rte/sc_engine.h **** /**************************************************************************************************
 250:.\sources\rte/sc_engine.h **** /* Application Data read/write Interface																			*/
 251:.\sources\rte/sc_engine.h **** /**************************************************************************************************
 252:.\sources\rte/sc_engine.h **** 
 253:.\sources\rte/sc_engine.h **** /**
 254:.\sources\rte/sc_engine.h ****  * Returns the current application value as pointer to the signal payload.
 255:.\sources\rte/sc_engine.h ****  * Careful: This is not threadsafe!!!
 256:.\sources\rte/sc_engine.h ****  *
 257:.\sources\rte/sc_engine.h ****  * @param  SC_ENGINE_t * const signal: Pointer to the signal object
 258:.\sources\rte/sc_engine.h ****  * @return sc_engine_data_t*: pointer to the current value of the application data buffer
 259:.\sources\rte/sc_engine.h ****  *
 260:.\sources\rte/sc_engine.h ****  **/
 261:.\sources\rte/sc_engine.h **** inline SC_ENGINE_data_t* RTE_SC_ENGINE_getPtr( SC_ENGINE_t * const signal )
 262:.\sources\rte/sc_engine.h **** {               
 263:.\sources\rte/sc_engine.h ****    //Todo: Critical region cannot be protected using return values																						
 264:.\sources\rte/sc_engine.h ****    return &(signal->value);                                                                        
 265:.\sources\rte/sc_engine.h **** }
 266:.\sources\rte/sc_engine.h **** 
 267:.\sources\rte/sc_engine.h **** /**
 268:.\sources\rte/sc_engine.h ****  * Returns the current application value of the passed signal instance.
 269:.\sources\rte/sc_engine.h ****  *
 270:.\sources\rte/sc_engine.h ****  * @param  SC_ENGINE_t * const signal: Pointer to the signal object
 271:.\sources\rte/sc_engine.h ****  * @return sc_engine_data_t: current value of the application data buffer
 272:.\sources\rte/sc_engine.h ****  *
 273:.\sources\rte/sc_engine.h ****  **/
 274:.\sources\rte/sc_engine.h **** inline SC_ENGINE_data_t RTE_SC_ENGINE_get( const SC_ENGINE_t * const signal )
 275:.\sources\rte/sc_engine.h **** {               
 276:.\sources\rte/sc_engine.h ****    //Todo: Critical region cannot be protected using return values																						
 277:.\sources\rte/sc_engine.h ****    return signal->value;                                                                           
 278:.\sources\rte/sc_engine.h **** }                                                                                                  
 279:.\sources\rte/sc_engine.h ****                                                                                                    
 280:.\sources\rte/sc_engine.h **** /**
 281:.\sources\rte/sc_engine.h ****  * Returns the current application value of the passed signal instance threadsafe.
 282:.\sources\rte/sc_engine.h ****  *
ARM GAS  C:\Users\DHEERA~1\AppData\Local\Temp\ccY1rsZt.s 			page 12


 283:.\sources\rte/sc_engine.h ****  * @param  SC_ENGINE_t * const signal: Pointer to the signal object
 284:.\sources\rte/sc_engine.h ****  * @param  SC_ENGINE_data_t* data: Pointer to the return data Pointer to the signal object
 285:.\sources\rte/sc_engine.h ****  * @return RC_SUCCESS
 286:.\sources\rte/sc_engine.h ****  *
 287:.\sources\rte/sc_engine.h ****  **/
 288:.\sources\rte/sc_engine.h **** inline RC_t RTE_SC_ENGINE_getThreadSafe( const SC_ENGINE_t * const signal, SC_ENGINE_data_t * const
 289:.\sources\rte/sc_engine.h **** {    
 290:.\sources\rte/sc_engine.h ****    if (TRUE == signal->pSigCfg->resourceActive) GetResource(signal->pSigCfg->resource);
 291:.\sources\rte/sc_engine.h ****    *data = signal->value;
 292:.\sources\rte/sc_engine.h ****    if (TRUE == signal->pSigCfg->resourceActive) ReleaseResource(signal->pSigCfg->resource);        
 293:.\sources\rte/sc_engine.h **** 
 294:.\sources\rte/sc_engine.h ****    return RC_SUCCESS;                                                                   
 295:.\sources\rte/sc_engine.h ****    
 296:.\sources\rte/sc_engine.h **** }                                                                                                  
 297:.\sources\rte/sc_engine.h ****                                                                                                    
 298:.\sources\rte/sc_engine.h **** /**
 299:.\sources\rte/sc_engine.h ****  * Sets a new application value to the passed signal instance by passing the new value.
 300:.\sources\rte/sc_engine.h ****  * The corresponding driver raw value will be calculated immediately by using the default conversio
 301:.\sources\rte/sc_engine.h ****  * signal specific scaling function.
 302:.\sources\rte/sc_engine.h ****  * The signal age will be set to 0 and the new status will be 'RTE_SIGNALSTATUS_VALID'.
 303:.\sources\rte/sc_engine.h ****  *
 304:.\sources\rte/sc_engine.h ****  * @param  SC_ENGINE_t * const signal: Pointer to the signal object
 305:.\sources\rte/sc_engine.h ****  * @param  sc_engine_data_t const value: value for the application data buffer
 306:.\sources\rte/sc_engine.h ****  * @return RC_t: standard return code, currently only RC_SUCCESS
 307:.\sources\rte/sc_engine.h ****  *
 308:.\sources\rte/sc_engine.h ****  **/
 309:.\sources\rte/sc_engine.h **** inline RC_t RTE_SC_ENGINE_set(SC_ENGINE_t * const signal, const SC_ENGINE_data_t value  )
 310:.\sources\rte/sc_engine.h **** {
 311:.\sources\rte/sc_engine.h **** 
 312:.\sources\rte/sc_engine.h ****    RC_t ret = RC_SUCCESS;
 313:.\sources\rte/sc_engine.h ****    size_t taskNum=0;
 314:.\sources\rte/sc_engine.h **** 
 315:.\sources\rte/sc_engine.h **** 
 316:.\sources\rte/sc_engine.h ****    if (TRUE == signal->pSigCfg->resourceActive) GetResource(signal->pSigCfg->resource);
  63              		.loc 3 316 0
  64 0012 134B     		ldr	r3, .L9+4
  65 0014 9A68     		ldr	r2, [r3, #8]
  66              	.LVL5:
 317:.\sources\rte/sc_engine.h ****    signal->value  = value;
  67              		.loc 3 317 0
  68 0016 1970     		strb	r1, [r3]
 318:.\sources\rte/sc_engine.h ****    signal->age    = 0;
  69              		.loc 3 318 0
  70 0018 0021     		movs	r1, #0
  71              	.LVL6:
  72 001a 5960     		str	r1, [r3, #4]
 319:.\sources\rte/sc_engine.h ****    signal->status = RTE_SIGNALSTATUS_VALID;
  73              		.loc 3 319 0
  74 001c 0221     		movs	r1, #2
  75 001e 5970     		strb	r1, [r3, #1]
 320:.\sources\rte/sc_engine.h ****    if (TRUE == signal->pSigCfg->resourceActive) ReleaseResource(signal->pSigCfg->resource);
 321:.\sources\rte/sc_engine.h **** 
 322:.\sources\rte/sc_engine.h ****    //Pointer to the Taskarray, containing the tasks receiving the onUpdate events
 323:.\sources\rte/sc_engine.h ****    TaskTypeArray* pTaskArray = signal->pSigCfg->onUpdateTasks;
  76              		.loc 3 323 0
  77 0020 5569     		ldr	r5, [r2, #20]
  78              	.LVL7:
ARM GAS  C:\Users\DHEERA~1\AppData\Local\Temp\ccY1rsZt.s 			page 13


 324:.\sources\rte/sc_engine.h **** 
 325:.\sources\rte/sc_engine.h ****    if (0 != signal->pSigCfg->evOnUpdate && NULL != pTaskArray){
  79              		.loc 3 325 0
  80 0022 9368     		ldr	r3, [r2, #8]
  81 0024 73B1     		cbz	r3, .L3
  82 0026 3DB9     		cbnz	r5, .L7
  83 0028 0CE0     		b	.L3
  84              	.LVL8:
  85              	.L5:
  86              	.LBB15:
 326:.\sources\rte/sc_engine.h ****       for( taskNum=0 ; taskNum < signal->pSigCfg->onUpdateTaskCount ;taskNum++){
 327:.\sources\rte/sc_engine.h **** 		  
 328:.\sources\rte/sc_engine.h ****           TaskType task = (*pTaskArray)[taskNum];
 329:.\sources\rte/sc_engine.h **** 	      SetEvent( task, signal->pSigCfg->evOnUpdate);
  87              		.loc 3 329 0
  88 002a 9968     		ldr	r1, [r3, #8]
  89 002c 55F82400 		ldr	r0, [r5, r4, lsl #2]
  90 0030 FFF7FEFF 		bl	EE_oo_SetEvent
  91              	.LVL9:
  92              	.LBE15:
 326:.\sources\rte/sc_engine.h ****       for( taskNum=0 ; taskNum < signal->pSigCfg->onUpdateTaskCount ;taskNum++){
  93              		.loc 3 326 0
  94 0034 0134     		adds	r4, r4, #1
  95              	.LVL10:
  96 0036 00E0     		b	.L4
  97              	.LVL11:
  98              	.L7:
 325:.\sources\rte/sc_engine.h ****       for( taskNum=0 ; taskNum < signal->pSigCfg->onUpdateTaskCount ;taskNum++){
  99              		.loc 3 325 0
 100 0038 0024     		movs	r4, #0
 101              	.LVL12:
 102              	.L4:
 326:.\sources\rte/sc_engine.h ****       for( taskNum=0 ; taskNum < signal->pSigCfg->onUpdateTaskCount ;taskNum++){
 103              		.loc 3 326 0
 104 003a 094B     		ldr	r3, .L9+4
 105 003c 9B68     		ldr	r3, [r3, #8]
 106 003e 1A69     		ldr	r2, [r3, #16]
 107 0040 9442     		cmp	r4, r2
 108 0042 F2D3     		bcc	.L5
 109              	.LVL13:
 110              	.L3:
 111              	.LBE14:
 112              	.LBE13:
 113              	.LBB16:
 114              	.LBB17:
 330:.\sources\rte/sc_engine.h ****       }
 331:.\sources\rte/sc_engine.h ****    }
 332:.\sources\rte/sc_engine.h **** 
 333:.\sources\rte/sc_engine.h ****    return ret;
 334:.\sources\rte/sc_engine.h **** }                                                                                                  
 335:.\sources\rte/sc_engine.h ****                                                                                                    
 336:.\sources\rte/sc_engine.h ****                                                                                                    
 337:.\sources\rte/sc_engine.h **** /**************************************************************************************************
 338:.\sources\rte/sc_engine.h **** /* Call functions to the connected drivers																			*/
 339:.\sources\rte/sc_engine.h **** /**************************************************************************************************
 340:.\sources\rte/sc_engine.h **** 
 341:.\sources\rte/sc_engine.h ****                                                                                                    
ARM GAS  C:\Users\DHEERA~1\AppData\Local\Temp\ccY1rsZt.s 			page 14


 342:.\sources\rte/sc_engine.h **** /**
 343:.\sources\rte/sc_engine.h ****  *  Calls the connected driver interface to get a new value.
 344:.\sources\rte/sc_engine.h ****  *
 345:.\sources\rte/sc_engine.h ****  * @param SC_ENGINE_t * const signal: Pointer to the signal object
 346:.\sources\rte/sc_engine.h ****  * @return  RC_t: Return value of the driver call
 347:.\sources\rte/sc_engine.h ****  *
 348:.\sources\rte/sc_engine.h ****  */
 349:.\sources\rte/sc_engine.h **** inline RC_t RTE_SC_ENGINE_pullPort( SC_ENGINE_t * const signal )
 350:.\sources\rte/sc_engine.h **** {                                                                                                  
 351:.\sources\rte/sc_engine.h ****    RC_t ret = RC_SUCCESS;
 352:.\sources\rte/sc_engine.h **** 
 353:.\sources\rte/sc_engine.h ****                                                                                                    
 354:.\sources\rte/sc_engine.h ****    if ( NULL != signal->pSigCfg->inDriver )
 355:.\sources\rte/sc_engine.h ****    {
 356:.\sources\rte/sc_engine.h **** 	  SC_ENGINE_data_t value = signal->value;
 357:.\sources\rte/sc_engine.h ****       ret = signal->pSigCfg->inDriver(&value);
 358:.\sources\rte/sc_engine.h ****                                                                                                    
 359:.\sources\rte/sc_engine.h ****       if ( ret == RC_SUCCESS )                                                                     
 360:.\sources\rte/sc_engine.h ****       {
 361:.\sources\rte/sc_engine.h ****     	  //Critical Section
 362:.\sources\rte/sc_engine.h ****     	  RTE_SC_ENGINE_set(signal, value);
 363:.\sources\rte/sc_engine.h ****       }
 364:.\sources\rte/sc_engine.h ****       else
 365:.\sources\rte/sc_engine.h ****       {
 366:.\sources\rte/sc_engine.h **** 		  //Signal is invalid. Error event (if present) will be fired
 367:.\sources\rte/sc_engine.h **** 		  RTE_SC_ENGINE_setStatus(signal, RTE_SIGNALSTATUS_INVALID);
 368:.\sources\rte/sc_engine.h ****       }
 369:.\sources\rte/sc_engine.h **** 
 370:.\sources\rte/sc_engine.h ****    }                                                                                               
 371:.\sources\rte/sc_engine.h ****                                                                                                    
 372:.\sources\rte/sc_engine.h ****    return ret;                                                                                     
 373:.\sources\rte/sc_engine.h **** }                                                                                                  
 374:.\sources\rte/sc_engine.h ****                                                                                                    
 375:.\sources\rte/sc_engine.h **** /**
 376:.\sources\rte/sc_engine.h ****  *  Calls the connected driver interfaces to send a value. Value will not be sent if it is INVALID.
 377:.\sources\rte/sc_engine.h ****  *
 378:.\sources\rte/sc_engine.h ****  * @param SC_ENGINE_t * const signal: Pointer to the signal object
 379:.\sources\rte/sc_engine.h ****  * @return  RC_t: Return value of the driver call
 380:.\sources\rte/sc_engine.h ****  *
 381:.\sources\rte/sc_engine.h ****  **/
 382:.\sources\rte/sc_engine.h **** inline RC_t RTE_SC_ENGINE_pushPort( const SC_ENGINE_t * const signal )
 383:.\sources\rte/sc_engine.h **** {                                                                                                  
 384:.\sources\rte/sc_engine.h ****    RC_t ret = RC_ERROR;
 385:.\sources\rte/sc_engine.h **** 
 386:.\sources\rte/sc_engine.h ****    if (RTE_SIGNALSTATUS_VALID == signal->status)
 115              		.loc 3 386 0
 116 0044 064B     		ldr	r3, .L9+4
 117 0046 5B78     		ldrb	r3, [r3, #1]	@ zero_extendqisi2
 118 0048 022B     		cmp	r3, #2
 119 004a 03D1     		bne	.L6
 387:.\sources\rte/sc_engine.h ****    {
 388:.\sources\rte/sc_engine.h **** 	   ret = signal->pSigCfg->outDriver(&(signal->value));
 120              		.loc 3 388 0
 121 004c 0448     		ldr	r0, .L9+4
 122 004e 8368     		ldr	r3, [r0, #8]
 123 0050 5B68     		ldr	r3, [r3, #4]
 124 0052 9847     		blx	r3
ARM GAS  C:\Users\DHEERA~1\AppData\Local\Temp\ccY1rsZt.s 			page 15


 125              	.LVL14:
 126              	.L6:
 127              	.LBE17:
 128              	.LBE16:
  54:sources\asw/swc_engine.c ****     }
  55:sources\asw/swc_engine.c ****     else
  56:sources\asw/swc_engine.c ****     {
  57:sources\asw/swc_engine.c ****         engineSpeedValue.engineSpeed = 0;
  58:sources\asw/swc_engine.c ****     }
  59:sources\asw/swc_engine.c ****     
  60:sources\asw/swc_engine.c ****     ret = RTE_SC_ENGINE_set(&SO_ENGINE_signal, engineSpeedValue);
  61:sources\asw/swc_engine.c ****     
  62:sources\asw/swc_engine.c ****     if(ret == RC_SUCCESS)
  63:sources\asw/swc_engine.c ****     {
  64:sources\asw/swc_engine.c ****         ret = RTE_SC_ENGINE_pushPort(&SO_ENGINE_signal);
  65:sources\asw/swc_engine.c ****     }
  66:sources\asw/swc_engine.c ****     else
  67:sources\asw/swc_engine.c ****     {
  68:sources\asw/swc_engine.c ****         UART_LOG_PutString("\r\nERROR: Enginee signal object not updated with engine signal value")
  69:sources\asw/swc_engine.c ****     }
  70:sources\asw/swc_engine.c ****     
  71:sources\asw/swc_engine.c ****     WD_Alive(run_engine_pos);
 129              		.loc 1 71 0
 130 0054 0220     		movs	r0, #2
 131 0056 FFF7FEFF 		bl	WD_Alive
 132              	.LVL15:
 133 005a 38BD     		pop	{r3, r4, r5, pc}
 134              	.L10:
 135              		.align	2
 136              	.L9:
 137 005c 00000000 		.word	SO_SPEED_signal
 138 0060 00000000 		.word	SO_ENGINE_signal
 139              		.cfi_endproc
 140              	.LFE154:
 141              		.size	ENGINE_setEngine_run, .-ENGINE_setEngine_run
 142              		.text
 143              	.Letext0:
 144              		.file 4 "d:\\psoc creator\\4.4\\psoc creator\\import\\gnu\\arm\\5.4.1\\arm-none-eabi\\include\\mac
 145              		.file 5 "d:\\psoc creator\\4.4\\psoc creator\\import\\gnu\\arm\\5.4.1\\arm-none-eabi\\include\\sys
 146              		.file 6 "d:\\psoc creator\\4.4\\psoc creator\\import\\gnu\\arm\\5.4.1\\lib\\gcc\\arm-none-eabi\\5.
 147              		.file 7 "Generated_Source\\PSoC5/ErikaOS_1_common_ee_types.inc"
 148              		.file 8 "Generated_Source\\PSoC5/ErikaOS_1_cortex_mx_ee_cpu.inc"
 149              		.file 9 "Generated_Source\\PSoC5/ErikaOS_1_ee_oo_common.inc"
 150              		.file 10 ".\\sources\\bsw/global.h"
 151              		.file 11 ".\\sources\\rte/rte_types.h"
 152              		.file 12 ".\\sources\\rte/rte.h"
 153              		.file 13 ".\\sources\\rte/sc_speed_type.h"
 154              		.file 14 ".\\sources\\rte/sc_engine_type.h"
 155              		.file 15 "Generated_Source\\PSoC5/ErikaOS_1_ee_oo_intfunc.inc"
 156              		.file 16 "Generated_Source\\PSoC5/ErikaOS_1_cortex_mx_ee_context.inc"
 157              		.file 17 "Generated_Source\\PSoC5/ErikaOS_1_common_ee_primitives.inc"
 158              		.file 18 "Generated_Source\\PSoC5/core_cm3.h"
 159              		.file 19 ".\\sources\\rte/sp_common.h"
 160              		.file 20 "Generated_Source\\PSoC5/ErikaOS_1_ee_oo_kernel.inc"
 161              		.file 21 "./WatchDogTimer.h"