ARM GAS  C:\Users\DHEERA~1\AppData\Local\Temp\ccIXxqMh.s 			page 1


   1              		.syntax unified
   2              		.cpu cortex-m3
   3              		.fpu softvfp
   4              		.eabi_attribute 20, 1
   5              		.eabi_attribute 21, 1
   6              		.eabi_attribute 23, 3
   7              		.eabi_attribute 24, 1
   8              		.eabi_attribute 25, 1
   9              		.eabi_attribute 26, 1
  10              		.eabi_attribute 30, 1
  11              		.eabi_attribute 34, 1
  12              		.eabi_attribute 18, 4
  13              		.thumb
  14              		.syntax unified
  15              		.file	"swc_brakelight.c"
  16              		.text
  17              	.Ltext0:
  18              		.cfi_sections	.debug_frame
  19              		.section	.text.BRAKELIGHT_setBrakeLight_run,"ax",%progbits
  20              		.align	2
  21              		.global	BRAKELIGHT_setBrakeLight_run
  22              		.thumb
  23              		.thumb_func
  24              		.type	BRAKELIGHT_setBrakeLight_run, %function
  25              	BRAKELIGHT_setBrakeLight_run:
  26              	.LFB154:
  27              		.file 1 "sources\\asw\\swc_brakelight.c"
   1:sources\asw/swc_brakelight.c **** /*
   2:sources\asw/swc_brakelight.c ****  * Filename: swc_brakelight.c
   3:sources\asw/swc_brakelight.c ****  *
   4:sources\asw/swc_brakelight.c ****  * Author: Autogenerated by H-DA RTE Generator, (c) Prof. Fromm
   5:sources\asw/swc_brakelight.c ****  *
   6:sources\asw/swc_brakelight.c ****  * description: Software component
   7:sources\asw/swc_brakelight.c ****  * name: swc_brakeLight
   8:sources\asw/swc_brakelight.c ****  * shortname: brakeLight
   9:sources\asw/swc_brakelight.c ****  *
  10:sources\asw/swc_brakelight.c ****  */
  11:sources\asw/swc_brakelight.c **** 
  12:sources\asw/swc_brakelight.c **** #include "project.h"
  13:sources\asw/swc_brakelight.c **** #include "global.h"
  14:sources\asw/swc_brakelight.c **** #include "rte.h"
  15:sources\asw/swc_brakelight.c **** #include "rte_types.h"
  16:sources\asw/swc_brakelight.c **** #include "swc_brakelight.h"
  17:sources\asw/swc_brakelight.c **** #include "WatchDogTimer.h"
  18:sources\asw/swc_brakelight.c **** 
  19:sources\asw/swc_brakelight.c **** 
  20:sources\asw/swc_brakelight.c **** 
  21:sources\asw/swc_brakelight.c **** /* USER CODE START SWC_BRAKELIGHT_INCLUDE */
  22:sources\asw/swc_brakelight.c **** 
  23:sources\asw/swc_brakelight.c **** /* USER CODE END SWC_BRAKELIGHT_INCLUDE */
  24:sources\asw/swc_brakelight.c **** 
  25:sources\asw/swc_brakelight.c **** 
  26:sources\asw/swc_brakelight.c **** #include "sp_common.h"
  27:sources\asw/swc_brakelight.c **** 
  28:sources\asw/swc_brakelight.c **** /* USER CODE START SWC_BRAKELIGHT_USERDEFINITIONS */
  29:sources\asw/swc_brakelight.c **** 
  30:sources\asw/swc_brakelight.c **** /* USER CODE END SWC_BRAKELIGHT_USERDEFINITIONS */
ARM GAS  C:\Users\DHEERA~1\AppData\Local\Temp\ccIXxqMh.s 			page 2


  31:sources\asw/swc_brakelight.c **** 
  32:sources\asw/swc_brakelight.c **** 
  33:sources\asw/swc_brakelight.c **** 
  34:sources\asw/swc_brakelight.c **** /*
  35:sources\asw/swc_brakelight.c ****  * component: swc_brakeLight
  36:sources\asw/swc_brakelight.c ****  * cycletime: 0
  37:sources\asw/swc_brakelight.c ****  * description: Runnable
  38:sources\asw/swc_brakelight.c ****  * events: ev_speed_onData
  39:sources\asw/swc_brakelight.c ****  * name: BRAKELIGHT_setBrakeLight_run
  40:sources\asw/swc_brakelight.c ****  * shortname: setBrakeLight
  41:sources\asw/swc_brakelight.c ****  * signalIN: so_speed
  42:sources\asw/swc_brakelight.c ****  * signalOUT: so_brakeLight
  43:sources\asw/swc_brakelight.c ****  * task: tsk_control
  44:sources\asw/swc_brakelight.c ****  */
  45:sources\asw/swc_brakelight.c **** void BRAKELIGHT_setBrakeLight_run(RTE_event ev)
  46:sources\asw/swc_brakelight.c **** {
  28              		.loc 1 46 0
  29              		.cfi_startproc
  30              		@ args = 0, pretend = 0, frame = 0
  31              		@ frame_needed = 0, uses_anonymous_args = 0
  32              	.LVL0:
  33 0000 38B5     		push	{r3, r4, r5, lr}
  34              		.cfi_def_cfa_offset 16
  35              		.cfi_offset 3, -16
  36              		.cfi_offset 4, -12
  37              		.cfi_offset 5, -8
  38              		.cfi_offset 14, -4
  39              	.LVL1:
  47:sources\asw/swc_brakelight.c **** 	/* USER CODE START BRAKELIGHT_setBrakeLight_run */
  48:sources\asw/swc_brakelight.c ****     SC_BRAKELIGHT_data_t brakeLightValue = SC_BRAKELIGHT_INIT_DATA;
  49:sources\asw/swc_brakelight.c ****     RC_t ret = RC_SUCCESS;
  50:sources\asw/swc_brakelight.c ****     
  51:sources\asw/swc_brakelight.c ****     if (RTE_SC_SPEED_get(&SO_SPEED_signal).speed == 0)
  40              		.loc 1 51 0
  41 0002 164B     		ldr	r3, .L10
  42 0004 1B78     		ldrb	r3, [r3]	@ zero_extendqisi2
  43 0006 13B9     		cbnz	r3, .L2
  44              	.LVL2:
  52:sources\asw/swc_brakelight.c ****     {
  53:sources\asw/swc_brakelight.c ****         brakeLightValue.brakeLight = RTE_SC_SPEED_get(&SO_SPEED_signal).speed; 
  45              		.loc 1 53 0
  46 0008 144B     		ldr	r3, .L10
  47 000a 1978     		ldrb	r1, [r3]	@ zero_extendqisi2
  48 000c 01E0     		b	.L3
  49              	.L2:
  54:sources\asw/swc_brakelight.c ****     }
  55:sources\asw/swc_brakelight.c ****     else
  56:sources\asw/swc_brakelight.c ****     {
  57:sources\asw/swc_brakelight.c ****         brakeLightValue.brakeLight = 1;
  50              		.loc 1 57 0
  51 000e 4FF00101 		mov	r1, #1
  52              	.LVL3:
  53              	.L3:
  54              	.LBB11:
  55              	.LBB12:
  56              		.file 2 ".\\sources\\rte/sc_brakelight.h"
   1:.\sources\rte/sc_brakelight.h **** 
ARM GAS  C:\Users\DHEERA~1\AppData\Local\Temp\ccIXxqMh.s 			page 3


   2:.\sources\rte/sc_brakelight.h **** 
   3:.\sources\rte/sc_brakelight.h **** /**
   4:.\sources\rte/sc_brakelight.h ****  *  file    SC_BRAKELIGHT_signal.h
   5:.\sources\rte/sc_brakelight.h ****  *
   6:.\sources\rte/sc_brakelight.h ****  *  brief   signal base class for signal sc_brakelight
   7:.\sources\rte/sc_brakelight.h ****  *
   8:.\sources\rte/sc_brakelight.h ****  *  author  Autogenerated, Peter Fromm       <peter.fromm@h-da.de>
   9:.\sources\rte/sc_brakelight.h ****  *
  10:.\sources\rte/sc_brakelight.h ****  * description: Signalclass
  11:.\sources\rte/sc_brakelight.h ****  * name: sc_brakeLight
  12:.\sources\rte/sc_brakelight.h ****  * shortname: brakeLight
  13:.\sources\rte/sc_brakelight.h ****  *
  14:.\sources\rte/sc_brakelight.h ****  */
  15:.\sources\rte/sc_brakelight.h **** 
  16:.\sources\rte/sc_brakelight.h **** 
  17:.\sources\rte/sc_brakelight.h **** 
  18:.\sources\rte/sc_brakelight.h **** #ifndef SC_BRAKELIGHT_SIGNAL_H_INCLUDED
  19:.\sources\rte/sc_brakelight.h **** #define SC_BRAKELIGHT_SIGNAL_H_INCLUDED
  20:.\sources\rte/sc_brakelight.h **** 
  21:.\sources\rte/sc_brakelight.h **** /*================================================[ public includes  ]=============================
  22:.\sources\rte/sc_brakelight.h **** #include "global.h"
  23:.\sources\rte/sc_brakelight.h **** #include "project.h"
  24:.\sources\rte/sc_brakelight.h **** #include "rte.h"
  25:.\sources\rte/sc_brakelight.h **** #include "rte_types.h"
  26:.\sources\rte/sc_brakelight.h **** 
  27:.\sources\rte/sc_brakelight.h **** #include "sc_brakelight_type.h"
  28:.\sources\rte/sc_brakelight.h **** 
  29:.\sources\rte/sc_brakelight.h **** 
  30:.\sources\rte/sc_brakelight.h **** /**************************************************************************************************
  31:.\sources\rte/sc_brakelight.h **** /* The driver API block																						*/
  32:.\sources\rte/sc_brakelight.h **** /**************************************************************************************************
  33:.\sources\rte/sc_brakelight.h ****                                                                                                    
  34:.\sources\rte/sc_brakelight.h **** /**
  35:.\sources\rte/sc_brakelight.h ****  *  Definition of function types for driver interfaces.
  36:.\sources\rte/sc_brakelight.h ****  *  I-Port
  37:.\sources\rte/sc_brakelight.h ****  */
  38:.\sources\rte/sc_brakelight.h **** typedef RC_t (*SC_BRAKELIGHT_driverIn_t)(SC_BRAKELIGHT_data_t * const);
  39:.\sources\rte/sc_brakelight.h **** 
  40:.\sources\rte/sc_brakelight.h **** /**
  41:.\sources\rte/sc_brakelight.h ****  *  Definition of function types for driver interfaces.
  42:.\sources\rte/sc_brakelight.h ****  *  O-Port
  43:.\sources\rte/sc_brakelight.h ****  */
  44:.\sources\rte/sc_brakelight.h **** typedef RC_t (*SC_BRAKELIGHT_driverOut_t)( const SC_BRAKELIGHT_data_t * const);
  45:.\sources\rte/sc_brakelight.h **** 
  46:.\sources\rte/sc_brakelight.h **** 
  47:.\sources\rte/sc_brakelight.h **** /**************************************************************************************************
  48:.\sources\rte/sc_brakelight.h **** /* The signal configuration API block																				*/
  49:.\sources\rte/sc_brakelight.h **** /**************************************************************************************************
  50:.\sources\rte/sc_brakelight.h **** 
  51:.\sources\rte/sc_brakelight.h **** /**
  52:.\sources\rte/sc_brakelight.h ****  * Instances of the struct SC_BRAKELIGHT_cfg_t represent the signal object configuration.
  53:.\sources\rte/sc_brakelight.h ****  */
  54:.\sources\rte/sc_brakelight.h **** struct SC_BRAKELIGHT_cfg_s
  55:.\sources\rte/sc_brakelight.h **** {
  56:.\sources\rte/sc_brakelight.h ****     /**
  57:.\sources\rte/sc_brakelight.h ****      * Function pointer to the input driver
  58:.\sources\rte/sc_brakelight.h ****      */
ARM GAS  C:\Users\DHEERA~1\AppData\Local\Temp\ccIXxqMh.s 			page 4


  59:.\sources\rte/sc_brakelight.h ****     SC_BRAKELIGHT_driverIn_t const inDriver;
  60:.\sources\rte/sc_brakelight.h **** 
  61:.\sources\rte/sc_brakelight.h ****     /**
  62:.\sources\rte/sc_brakelight.h ****      * Function pointer to the output driver table
  63:.\sources\rte/sc_brakelight.h ****      */
  64:.\sources\rte/sc_brakelight.h ****    SC_BRAKELIGHT_driverOut_t const outDriver;
  65:.\sources\rte/sc_brakelight.h ****    
  66:.\sources\rte/sc_brakelight.h ****     /**
  67:.\sources\rte/sc_brakelight.h ****      * Event onUpdate
  68:.\sources\rte/sc_brakelight.h ****      */
  69:.\sources\rte/sc_brakelight.h ****     EventMaskType const evOnUpdate;
  70:.\sources\rte/sc_brakelight.h ****     
  71:.\sources\rte/sc_brakelight.h ****     
  72:.\sources\rte/sc_brakelight.h ****     /**
  73:.\sources\rte/sc_brakelight.h ****      * Event onError
  74:.\sources\rte/sc_brakelight.h ****      */
  75:.\sources\rte/sc_brakelight.h ****     EventMaskType const evOnError;
  76:.\sources\rte/sc_brakelight.h ****     
  77:.\sources\rte/sc_brakelight.h ****     /**
  78:.\sources\rte/sc_brakelight.h ****      * Task Count onUpdate
  79:.\sources\rte/sc_brakelight.h ****      */
  80:.\sources\rte/sc_brakelight.h ****     size_t const onUpdateTaskCount;
  81:.\sources\rte/sc_brakelight.h **** 
  82:.\sources\rte/sc_brakelight.h ****     /**
  83:.\sources\rte/sc_brakelight.h ****      * Task List onUpdate
  84:.\sources\rte/sc_brakelight.h ****      */
  85:.\sources\rte/sc_brakelight.h ****     TaskTypeArray* const onUpdateTasks;
  86:.\sources\rte/sc_brakelight.h ****     
  87:.\sources\rte/sc_brakelight.h ****     /**
  88:.\sources\rte/sc_brakelight.h ****      * Task Count onError
  89:.\sources\rte/sc_brakelight.h ****      */
  90:.\sources\rte/sc_brakelight.h ****     size_t const onErrorTaskCount;
  91:.\sources\rte/sc_brakelight.h **** 
  92:.\sources\rte/sc_brakelight.h ****     /**
  93:.\sources\rte/sc_brakelight.h ****      * Task List onError
  94:.\sources\rte/sc_brakelight.h ****      */
  95:.\sources\rte/sc_brakelight.h ****     TaskTypeArray* const onErrorTasks;
  96:.\sources\rte/sc_brakelight.h **** 	
  97:.\sources\rte/sc_brakelight.h **** 	
  98:.\sources\rte/sc_brakelight.h **** 	/**
  99:.\sources\rte/sc_brakelight.h **** 	 * Ressourse is active? We need an additional boolean as a ressource value 0 is valid.
 100:.\sources\rte/sc_brakelight.h **** 	 */
 101:.\sources\rte/sc_brakelight.h **** 	 boolean_t const resourceActive;
 102:.\sources\rte/sc_brakelight.h **** 	 
 103:.\sources\rte/sc_brakelight.h **** 	/**
 104:.\sources\rte/sc_brakelight.h **** 	 * Ressourse 
 105:.\sources\rte/sc_brakelight.h **** 	 */
 106:.\sources\rte/sc_brakelight.h **** 	 ResourceType const resource;
 107:.\sources\rte/sc_brakelight.h **** 
 108:.\sources\rte/sc_brakelight.h **** };                                                                                                 
 109:.\sources\rte/sc_brakelight.h **** typedef const struct SC_BRAKELIGHT_cfg_s SC_BRAKELIGHT_cfg_t;
 110:.\sources\rte/sc_brakelight.h ****                               
 111:.\sources\rte/sc_brakelight.h **** /**************************************************************************************************
 112:.\sources\rte/sc_brakelight.h **** /* The data interface block																							*/
 113:.\sources\rte/sc_brakelight.h **** /**************************************************************************************************
 114:.\sources\rte/sc_brakelight.h **** 
 115:.\sources\rte/sc_brakelight.h ****                                                                                                    
ARM GAS  C:\Users\DHEERA~1\AppData\Local\Temp\ccIXxqMh.s 			page 5


 116:.\sources\rte/sc_brakelight.h **** 							  
 117:.\sources\rte/sc_brakelight.h **** /**
 118:.\sources\rte/sc_brakelight.h ****  * Instances of the struct SC_BRAKELIGHT_t represent the signal objects.
 119:.\sources\rte/sc_brakelight.h ****  * A signal object contains the current application value 'value' as well as relevant meta data.
 120:.\sources\rte/sc_brakelight.h ****  */
 121:.\sources\rte/sc_brakelight.h **** struct SC_BRAKELIGHT_s
 122:.\sources\rte/sc_brakelight.h **** {                                                                                                  
 123:.\sources\rte/sc_brakelight.h **** 
 124:.\sources\rte/sc_brakelight.h **** 	/**
 125:.\sources\rte/sc_brakelight.h **** 	 * Data buffer for the application value
 126:.\sources\rte/sc_brakelight.h **** 	 */
 127:.\sources\rte/sc_brakelight.h ****     SC_BRAKELIGHT_data_t value;
 128:.\sources\rte/sc_brakelight.h **** 
 129:.\sources\rte/sc_brakelight.h ****     /**
 130:.\sources\rte/sc_brakelight.h ****      * Current signal status
 131:.\sources\rte/sc_brakelight.h ****      */
 132:.\sources\rte/sc_brakelight.h ****     RTE_signalStatus_t status;
 133:.\sources\rte/sc_brakelight.h **** 
 134:.\sources\rte/sc_brakelight.h ****     /**
 135:.\sources\rte/sc_brakelight.h ****      * Current age of the signal (in calling cycles)
 136:.\sources\rte/sc_brakelight.h ****      */
 137:.\sources\rte/sc_brakelight.h ****     uint32_t age;
 138:.\sources\rte/sc_brakelight.h **** 
 139:.\sources\rte/sc_brakelight.h ****     /**
 140:.\sources\rte/sc_brakelight.h ****      * Pointer to the signal configuration
 141:.\sources\rte/sc_brakelight.h ****      */
 142:.\sources\rte/sc_brakelight.h **** 	const SC_BRAKELIGHT_cfg_t * const    pSigCfg;
 143:.\sources\rte/sc_brakelight.h **** 
 144:.\sources\rte/sc_brakelight.h **** };                                                                                                 
 145:.\sources\rte/sc_brakelight.h **** typedef struct SC_BRAKELIGHT_s SC_BRAKELIGHT_t;
 146:.\sources\rte/sc_brakelight.h **** 
 147:.\sources\rte/sc_brakelight.h **** /**************************************************************************************************
 148:.\sources\rte/sc_brakelight.h **** /* Signal initialisation   																							*/
 149:.\sources\rte/sc_brakelight.h **** /**************************************************************************************************
 150:.\sources\rte/sc_brakelight.h **** 
 151:.\sources\rte/sc_brakelight.h **** /**
 152:.\sources\rte/sc_brakelight.h ****  * Initializes a signal instance with a passed init value.
 153:.\sources\rte/sc_brakelight.h ****  * Depending on the configured conversion or scaling function the raw_value will be calculated.
 154:.\sources\rte/sc_brakelight.h ****  * Signal status will change from RTE_SIGNALSTATUS_STARTUP to RTE_SIGNALSTATUS_INITIALIZED.
 155:.\sources\rte/sc_brakelight.h ****  *
 156:.\sources\rte/sc_brakelight.h ****  * @param  SC_BRAKELIGHT_t * const signal: Pointer to the signal object which will be initialised
 157:.\sources\rte/sc_brakelight.h ****  * @return RC_t: standard return code, currently only RC_SUCCESS
 158:.\sources\rte/sc_brakelight.h ****  *
 159:.\sources\rte/sc_brakelight.h ****  **/
 160:.\sources\rte/sc_brakelight.h **** inline RC_t RTE_SC_BRAKELIGHT_init( SC_BRAKELIGHT_t * const signal )
 161:.\sources\rte/sc_brakelight.h **** {                                                                                                  
 162:.\sources\rte/sc_brakelight.h **** 
 163:.\sources\rte/sc_brakelight.h ****    RC_t ret = RC_SUCCESS;
 164:.\sources\rte/sc_brakelight.h **** 
 165:.\sources\rte/sc_brakelight.h ****    //Set value and raw value
 166:.\sources\rte/sc_brakelight.h ****    signal->value  = SC_BRAKELIGHT_INIT_DATA;
 167:.\sources\rte/sc_brakelight.h ****    signal->age    = 0;
 168:.\sources\rte/sc_brakelight.h ****    signal->status = RTE_SIGNALSTATUS_INITIALIZED;
 169:.\sources\rte/sc_brakelight.h **** 
 170:.\sources\rte/sc_brakelight.h ****    return ret;
 171:.\sources\rte/sc_brakelight.h **** }
 172:.\sources\rte/sc_brakelight.h **** 
ARM GAS  C:\Users\DHEERA~1\AppData\Local\Temp\ccIXxqMh.s 			page 6


 173:.\sources\rte/sc_brakelight.h **** /**************************************************************************************************
 174:.\sources\rte/sc_brakelight.h **** /* Status and timeout control																						*/
 175:.\sources\rte/sc_brakelight.h **** /**************************************************************************************************
 176:.\sources\rte/sc_brakelight.h **** 
 177:.\sources\rte/sc_brakelight.h **** /**
 178:.\sources\rte/sc_brakelight.h ****  *  Returns the current signal status of the passed signal instance.
 179:.\sources\rte/sc_brakelight.h ****  *
 180:.\sources\rte/sc_brakelight.h ****  * @param  SC_BRAKELIGHT_t * const signal: Pointer to the signal object
 181:.\sources\rte/sc_brakelight.h ****  * @return  sig_status_t: The current signal status
 182:.\sources\rte/sc_brakelight.h ****  *
 183:.\sources\rte/sc_brakelight.h ****  **/
 184:.\sources\rte/sc_brakelight.h **** inline RTE_signalStatus_t RTE_SC_BRAKELIGHT_getStatus( const SC_BRAKELIGHT_t * const signal )
 185:.\sources\rte/sc_brakelight.h **** {
 186:.\sources\rte/sc_brakelight.h ****    return signal->status;
 187:.\sources\rte/sc_brakelight.h **** }
 188:.\sources\rte/sc_brakelight.h **** 
 189:.\sources\rte/sc_brakelight.h **** 
 190:.\sources\rte/sc_brakelight.h **** /**
 191:.\sources\rte/sc_brakelight.h ****  *  Sets a new signal status of the passed signal instance by passing the new status.
 192:.\sources\rte/sc_brakelight.h ****  *
 193:.\sources\rte/sc_brakelight.h ****  * @param  SC_BRAKELIGHT_t * const signal: Pointer to the signal object
 194:.\sources\rte/sc_brakelight.h ****  * @param  const sig_status_t status: New signal status
 195:.\sources\rte/sc_brakelight.h ****  * @return RC_t: standard return code, currently only RC_SUCCESS
 196:.\sources\rte/sc_brakelight.h ****  *
 197:.\sources\rte/sc_brakelight.h ****  */
 198:.\sources\rte/sc_brakelight.h **** inline RC_t RTE_SC_BRAKELIGHT_setStatus( SC_BRAKELIGHT_t * const signal, const RTE_signalStatus_t s
 199:.\sources\rte/sc_brakelight.h **** {
 200:.\sources\rte/sc_brakelight.h ****    signal->status = status;
 201:.\sources\rte/sc_brakelight.h ****    size_t taskNum=0;
 202:.\sources\rte/sc_brakelight.h ****    
 203:.\sources\rte/sc_brakelight.h ****    //Fire error events in case of invalid state
 204:.\sources\rte/sc_brakelight.h ****    if (signal->status == RTE_SIGNALSTATUS_INVALID)
 205:.\sources\rte/sc_brakelight.h ****    {
 206:.\sources\rte/sc_brakelight.h **** 	    //Pointer to the Taskarray, containing the tasks receiving the onUpdate events
 207:.\sources\rte/sc_brakelight.h **** 		TaskTypeArray* pTaskArray = signal->pSigCfg->onErrorTasks;
 208:.\sources\rte/sc_brakelight.h **** 
 209:.\sources\rte/sc_brakelight.h **** 		if (0 != signal->pSigCfg->evOnError && NULL != pTaskArray){
 210:.\sources\rte/sc_brakelight.h **** 			for( taskNum=0 ; taskNum < signal->pSigCfg->onErrorTaskCount ;taskNum++){
 211:.\sources\rte/sc_brakelight.h **** 				TaskType task = (*pTaskArray)[taskNum];
 212:.\sources\rte/sc_brakelight.h **** 				SetEvent( task, signal->pSigCfg->evOnError);
 213:.\sources\rte/sc_brakelight.h **** 			}
 214:.\sources\rte/sc_brakelight.h **** 		}
 215:.\sources\rte/sc_brakelight.h ****    }
 216:.\sources\rte/sc_brakelight.h ****    
 217:.\sources\rte/sc_brakelight.h ****    return RC_SUCCESS;
 218:.\sources\rte/sc_brakelight.h **** }
 219:.\sources\rte/sc_brakelight.h **** 
 220:.\sources\rte/sc_brakelight.h **** 
 221:.\sources\rte/sc_brakelight.h **** /**
 222:.\sources\rte/sc_brakelight.h ****  * Returns the count of refreshing trials (refresh, set or set_raw) that failed.
 223:.\sources\rte/sc_brakelight.h ****  * Prerquisite: The signal is refreshed cyclically
 224:.\sources\rte/sc_brakelight.h ****  *
 225:.\sources\rte/sc_brakelight.h ****  * @param  SC_BRAKELIGHT_t * const signal: Pointer to the signal object
 226:.\sources\rte/sc_brakelight.h ****  * @return uint32_t: Number of cycles since the signal has been updated for the last time
 227:.\sources\rte/sc_brakelight.h ****  */
 228:.\sources\rte/sc_brakelight.h **** inline uint32_t RTE_SC_BRAKELIGHT_getAge( const SC_BRAKELIGHT_t * const signal )
 229:.\sources\rte/sc_brakelight.h **** {
ARM GAS  C:\Users\DHEERA~1\AppData\Local\Temp\ccIXxqMh.s 			page 7


 230:.\sources\rte/sc_brakelight.h ****    return signal->age;
 231:.\sources\rte/sc_brakelight.h **** }
 232:.\sources\rte/sc_brakelight.h **** 
 233:.\sources\rte/sc_brakelight.h **** /**
 234:.\sources\rte/sc_brakelight.h ****  * Should be called by application or driver if no new value can be provided.
 235:.\sources\rte/sc_brakelight.h ****  * @param  SC_BRAKELIGHT_t * const signal: Pointer to the signal object
 236:.\sources\rte/sc_brakelight.h ****  * @param uint32_t increment: incrementvalue, typically in [ms]
 237:.\sources\rte/sc_brakelight.h ****  * @return void
 238:.\sources\rte/sc_brakelight.h ****  */
 239:.\sources\rte/sc_brakelight.h **** inline void RTE_SC_BRAKELIGHT_incAge(  SC_BRAKELIGHT_t * const signal , uint32_t increment)
 240:.\sources\rte/sc_brakelight.h **** {
 241:.\sources\rte/sc_brakelight.h **** 	   //Hack....
 242:.\sources\rte/sc_brakelight.h **** 	   if ( 0xFFFF0000 > (signal->age + increment) )
 243:.\sources\rte/sc_brakelight.h **** 	   {
 244:.\sources\rte/sc_brakelight.h **** 	      signal->age += increment;
 245:.\sources\rte/sc_brakelight.h **** 	   }
 246:.\sources\rte/sc_brakelight.h **** }
 247:.\sources\rte/sc_brakelight.h **** 
 248:.\sources\rte/sc_brakelight.h **** 
 249:.\sources\rte/sc_brakelight.h **** /**************************************************************************************************
 250:.\sources\rte/sc_brakelight.h **** /* Application Data read/write Interface																			*/
 251:.\sources\rte/sc_brakelight.h **** /**************************************************************************************************
 252:.\sources\rte/sc_brakelight.h **** 
 253:.\sources\rte/sc_brakelight.h **** /**
 254:.\sources\rte/sc_brakelight.h ****  * Returns the current application value as pointer to the signal payload.
 255:.\sources\rte/sc_brakelight.h ****  * Careful: This is not threadsafe!!!
 256:.\sources\rte/sc_brakelight.h ****  *
 257:.\sources\rte/sc_brakelight.h ****  * @param  SC_BRAKELIGHT_t * const signal: Pointer to the signal object
 258:.\sources\rte/sc_brakelight.h ****  * @return sc_brakelight_data_t*: pointer to the current value of the application data buffer
 259:.\sources\rte/sc_brakelight.h ****  *
 260:.\sources\rte/sc_brakelight.h ****  **/
 261:.\sources\rte/sc_brakelight.h **** inline SC_BRAKELIGHT_data_t* RTE_SC_BRAKELIGHT_getPtr( SC_BRAKELIGHT_t * const signal )
 262:.\sources\rte/sc_brakelight.h **** {               
 263:.\sources\rte/sc_brakelight.h ****    //Todo: Critical region cannot be protected using return values																						
 264:.\sources\rte/sc_brakelight.h ****    return &(signal->value);                                                                        
 265:.\sources\rte/sc_brakelight.h **** }
 266:.\sources\rte/sc_brakelight.h **** 
 267:.\sources\rte/sc_brakelight.h **** /**
 268:.\sources\rte/sc_brakelight.h ****  * Returns the current application value of the passed signal instance.
 269:.\sources\rte/sc_brakelight.h ****  *
 270:.\sources\rte/sc_brakelight.h ****  * @param  SC_BRAKELIGHT_t * const signal: Pointer to the signal object
 271:.\sources\rte/sc_brakelight.h ****  * @return sc_brakelight_data_t: current value of the application data buffer
 272:.\sources\rte/sc_brakelight.h ****  *
 273:.\sources\rte/sc_brakelight.h ****  **/
 274:.\sources\rte/sc_brakelight.h **** inline SC_BRAKELIGHT_data_t RTE_SC_BRAKELIGHT_get( const SC_BRAKELIGHT_t * const signal )
 275:.\sources\rte/sc_brakelight.h **** {               
 276:.\sources\rte/sc_brakelight.h ****    //Todo: Critical region cannot be protected using return values																						
 277:.\sources\rte/sc_brakelight.h ****    return signal->value;                                                                           
 278:.\sources\rte/sc_brakelight.h **** }                                                                                                  
 279:.\sources\rte/sc_brakelight.h ****                                                                                                    
 280:.\sources\rte/sc_brakelight.h **** /**
 281:.\sources\rte/sc_brakelight.h ****  * Returns the current application value of the passed signal instance threadsafe.
 282:.\sources\rte/sc_brakelight.h ****  *
 283:.\sources\rte/sc_brakelight.h ****  * @param  SC_BRAKELIGHT_t * const signal: Pointer to the signal object
 284:.\sources\rte/sc_brakelight.h ****  * @param  SC_BRAKELIGHT_data_t* data: Pointer to the return data Pointer to the signal object
 285:.\sources\rte/sc_brakelight.h ****  * @return RC_SUCCESS
 286:.\sources\rte/sc_brakelight.h ****  *
ARM GAS  C:\Users\DHEERA~1\AppData\Local\Temp\ccIXxqMh.s 			page 8


 287:.\sources\rte/sc_brakelight.h ****  **/
 288:.\sources\rte/sc_brakelight.h **** inline RC_t RTE_SC_BRAKELIGHT_getThreadSafe( const SC_BRAKELIGHT_t * const signal, SC_BRAKELIGHT_da
 289:.\sources\rte/sc_brakelight.h **** {    
 290:.\sources\rte/sc_brakelight.h ****    if (TRUE == signal->pSigCfg->resourceActive) GetResource(signal->pSigCfg->resource);
 291:.\sources\rte/sc_brakelight.h ****    *data = signal->value;
 292:.\sources\rte/sc_brakelight.h ****    if (TRUE == signal->pSigCfg->resourceActive) ReleaseResource(signal->pSigCfg->resource);        
 293:.\sources\rte/sc_brakelight.h **** 
 294:.\sources\rte/sc_brakelight.h ****    return RC_SUCCESS;                                                                   
 295:.\sources\rte/sc_brakelight.h ****    
 296:.\sources\rte/sc_brakelight.h **** }                                                                                                  
 297:.\sources\rte/sc_brakelight.h ****                                                                                                    
 298:.\sources\rte/sc_brakelight.h **** /**
 299:.\sources\rte/sc_brakelight.h ****  * Sets a new application value to the passed signal instance by passing the new value.
 300:.\sources\rte/sc_brakelight.h ****  * The corresponding driver raw value will be calculated immediately by using the default conversio
 301:.\sources\rte/sc_brakelight.h ****  * signal specific scaling function.
 302:.\sources\rte/sc_brakelight.h ****  * The signal age will be set to 0 and the new status will be 'RTE_SIGNALSTATUS_VALID'.
 303:.\sources\rte/sc_brakelight.h ****  *
 304:.\sources\rte/sc_brakelight.h ****  * @param  SC_BRAKELIGHT_t * const signal: Pointer to the signal object
 305:.\sources\rte/sc_brakelight.h ****  * @param  sc_brakelight_data_t const value: value for the application data buffer
 306:.\sources\rte/sc_brakelight.h ****  * @return RC_t: standard return code, currently only RC_SUCCESS
 307:.\sources\rte/sc_brakelight.h ****  *
 308:.\sources\rte/sc_brakelight.h ****  **/
 309:.\sources\rte/sc_brakelight.h **** inline RC_t RTE_SC_BRAKELIGHT_set(SC_BRAKELIGHT_t * const signal, const SC_BRAKELIGHT_data_t value 
 310:.\sources\rte/sc_brakelight.h **** {
 311:.\sources\rte/sc_brakelight.h **** 
 312:.\sources\rte/sc_brakelight.h ****    RC_t ret = RC_SUCCESS;
 313:.\sources\rte/sc_brakelight.h ****    size_t taskNum=0;
 314:.\sources\rte/sc_brakelight.h **** 
 315:.\sources\rte/sc_brakelight.h **** 
 316:.\sources\rte/sc_brakelight.h ****    if (TRUE == signal->pSigCfg->resourceActive) GetResource(signal->pSigCfg->resource);
  57              		.loc 2 316 0
  58 0012 134B     		ldr	r3, .L10+4
  59 0014 9A68     		ldr	r2, [r3, #8]
  60              	.LVL4:
 317:.\sources\rte/sc_brakelight.h ****    signal->value  = value;
  61              		.loc 2 317 0
  62 0016 1970     		strb	r1, [r3]
 318:.\sources\rte/sc_brakelight.h ****    signal->age    = 0;
  63              		.loc 2 318 0
  64 0018 0021     		movs	r1, #0
  65              	.LVL5:
  66 001a 5960     		str	r1, [r3, #4]
 319:.\sources\rte/sc_brakelight.h ****    signal->status = RTE_SIGNALSTATUS_VALID;
  67              		.loc 2 319 0
  68 001c 0221     		movs	r1, #2
  69 001e 5970     		strb	r1, [r3, #1]
 320:.\sources\rte/sc_brakelight.h ****    if (TRUE == signal->pSigCfg->resourceActive) ReleaseResource(signal->pSigCfg->resource);
 321:.\sources\rte/sc_brakelight.h **** 
 322:.\sources\rte/sc_brakelight.h ****    //Pointer to the Taskarray, containing the tasks receiving the onUpdate events
 323:.\sources\rte/sc_brakelight.h ****    TaskTypeArray* pTaskArray = signal->pSigCfg->onUpdateTasks;
  70              		.loc 2 323 0
  71 0020 5569     		ldr	r5, [r2, #20]
  72              	.LVL6:
 324:.\sources\rte/sc_brakelight.h **** 
 325:.\sources\rte/sc_brakelight.h ****    if (0 != signal->pSigCfg->evOnUpdate && NULL != pTaskArray){
  73              		.loc 2 325 0
  74 0022 9368     		ldr	r3, [r2, #8]
ARM GAS  C:\Users\DHEERA~1\AppData\Local\Temp\ccIXxqMh.s 			page 9


  75 0024 73B1     		cbz	r3, .L4
  76 0026 3DB9     		cbnz	r5, .L8
  77 0028 0CE0     		b	.L4
  78              	.LVL7:
  79              	.L6:
  80              	.LBB13:
 326:.\sources\rte/sc_brakelight.h ****       for( taskNum=0 ; taskNum < signal->pSigCfg->onUpdateTaskCount ;taskNum++){
 327:.\sources\rte/sc_brakelight.h **** 		  
 328:.\sources\rte/sc_brakelight.h ****           TaskType task = (*pTaskArray)[taskNum];
 329:.\sources\rte/sc_brakelight.h **** 	      SetEvent( task, signal->pSigCfg->evOnUpdate);
  81              		.loc 2 329 0
  82 002a 9968     		ldr	r1, [r3, #8]
  83 002c 55F82400 		ldr	r0, [r5, r4, lsl #2]
  84 0030 FFF7FEFF 		bl	EE_oo_SetEvent
  85              	.LVL8:
  86              	.LBE13:
 326:.\sources\rte/sc_brakelight.h ****       for( taskNum=0 ; taskNum < signal->pSigCfg->onUpdateTaskCount ;taskNum++){
  87              		.loc 2 326 0
  88 0034 0134     		adds	r4, r4, #1
  89              	.LVL9:
  90 0036 00E0     		b	.L5
  91              	.LVL10:
  92              	.L8:
 325:.\sources\rte/sc_brakelight.h ****       for( taskNum=0 ; taskNum < signal->pSigCfg->onUpdateTaskCount ;taskNum++){
  93              		.loc 2 325 0
  94 0038 0024     		movs	r4, #0
  95              	.LVL11:
  96              	.L5:
 326:.\sources\rte/sc_brakelight.h ****       for( taskNum=0 ; taskNum < signal->pSigCfg->onUpdateTaskCount ;taskNum++){
  97              		.loc 2 326 0
  98 003a 094B     		ldr	r3, .L10+4
  99 003c 9B68     		ldr	r3, [r3, #8]
 100 003e 1A69     		ldr	r2, [r3, #16]
 101 0040 9442     		cmp	r4, r2
 102 0042 F2D3     		bcc	.L6
 103              	.LVL12:
 104              	.L4:
 105              	.LBE12:
 106              	.LBE11:
 107              	.LBB14:
 108              	.LBB15:
 330:.\sources\rte/sc_brakelight.h ****       }
 331:.\sources\rte/sc_brakelight.h ****    }
 332:.\sources\rte/sc_brakelight.h **** 
 333:.\sources\rte/sc_brakelight.h ****    return ret;
 334:.\sources\rte/sc_brakelight.h **** }                                                                                                  
 335:.\sources\rte/sc_brakelight.h ****                                                                                                    
 336:.\sources\rte/sc_brakelight.h ****                                                                                                    
 337:.\sources\rte/sc_brakelight.h **** /**************************************************************************************************
 338:.\sources\rte/sc_brakelight.h **** /* Call functions to the connected drivers																			*/
 339:.\sources\rte/sc_brakelight.h **** /**************************************************************************************************
 340:.\sources\rte/sc_brakelight.h **** 
 341:.\sources\rte/sc_brakelight.h ****                                                                                                    
 342:.\sources\rte/sc_brakelight.h **** /**
 343:.\sources\rte/sc_brakelight.h ****  *  Calls the connected driver interface to get a new value.
 344:.\sources\rte/sc_brakelight.h ****  *
 345:.\sources\rte/sc_brakelight.h ****  * @param SC_BRAKELIGHT_t * const signal: Pointer to the signal object
ARM GAS  C:\Users\DHEERA~1\AppData\Local\Temp\ccIXxqMh.s 			page 10


 346:.\sources\rte/sc_brakelight.h ****  * @return  RC_t: Return value of the driver call
 347:.\sources\rte/sc_brakelight.h ****  *
 348:.\sources\rte/sc_brakelight.h ****  */
 349:.\sources\rte/sc_brakelight.h **** inline RC_t RTE_SC_BRAKELIGHT_pullPort( SC_BRAKELIGHT_t * const signal )
 350:.\sources\rte/sc_brakelight.h **** {                                                                                                  
 351:.\sources\rte/sc_brakelight.h ****    RC_t ret = RC_SUCCESS;
 352:.\sources\rte/sc_brakelight.h **** 
 353:.\sources\rte/sc_brakelight.h ****                                                                                                    
 354:.\sources\rte/sc_brakelight.h ****    if ( NULL != signal->pSigCfg->inDriver )
 355:.\sources\rte/sc_brakelight.h ****    {
 356:.\sources\rte/sc_brakelight.h **** 	  SC_BRAKELIGHT_data_t value = signal->value;
 357:.\sources\rte/sc_brakelight.h ****       ret = signal->pSigCfg->inDriver(&value);
 358:.\sources\rte/sc_brakelight.h ****                                                                                                    
 359:.\sources\rte/sc_brakelight.h ****       if ( ret == RC_SUCCESS )                                                                     
 360:.\sources\rte/sc_brakelight.h ****       {
 361:.\sources\rte/sc_brakelight.h ****     	  //Critical Section
 362:.\sources\rte/sc_brakelight.h ****     	  RTE_SC_BRAKELIGHT_set(signal, value);
 363:.\sources\rte/sc_brakelight.h ****       }
 364:.\sources\rte/sc_brakelight.h ****       else
 365:.\sources\rte/sc_brakelight.h ****       {
 366:.\sources\rte/sc_brakelight.h **** 		  //Signal is invalid. Error event (if present) will be fired
 367:.\sources\rte/sc_brakelight.h **** 		  RTE_SC_BRAKELIGHT_setStatus(signal, RTE_SIGNALSTATUS_INVALID);
 368:.\sources\rte/sc_brakelight.h ****       }
 369:.\sources\rte/sc_brakelight.h **** 
 370:.\sources\rte/sc_brakelight.h ****    }                                                                                               
 371:.\sources\rte/sc_brakelight.h ****                                                                                                    
 372:.\sources\rte/sc_brakelight.h ****    return ret;                                                                                     
 373:.\sources\rte/sc_brakelight.h **** }                                                                                                  
 374:.\sources\rte/sc_brakelight.h ****                                                                                                    
 375:.\sources\rte/sc_brakelight.h **** /**
 376:.\sources\rte/sc_brakelight.h ****  *  Calls the connected driver interfaces to send a value. Value will not be sent if it is INVALID.
 377:.\sources\rte/sc_brakelight.h ****  *
 378:.\sources\rte/sc_brakelight.h ****  * @param SC_BRAKELIGHT_t * const signal: Pointer to the signal object
 379:.\sources\rte/sc_brakelight.h ****  * @return  RC_t: Return value of the driver call
 380:.\sources\rte/sc_brakelight.h ****  *
 381:.\sources\rte/sc_brakelight.h ****  **/
 382:.\sources\rte/sc_brakelight.h **** inline RC_t RTE_SC_BRAKELIGHT_pushPort( const SC_BRAKELIGHT_t * const signal )
 383:.\sources\rte/sc_brakelight.h **** {                                                                                                  
 384:.\sources\rte/sc_brakelight.h ****    RC_t ret = RC_ERROR;
 385:.\sources\rte/sc_brakelight.h **** 
 386:.\sources\rte/sc_brakelight.h ****    if (RTE_SIGNALSTATUS_VALID == signal->status)
 109              		.loc 2 386 0
 110 0044 064B     		ldr	r3, .L10+4
 111 0046 5B78     		ldrb	r3, [r3, #1]	@ zero_extendqisi2
 112 0048 022B     		cmp	r3, #2
 113 004a 03D1     		bne	.L7
 387:.\sources\rte/sc_brakelight.h ****    {
 388:.\sources\rte/sc_brakelight.h **** 	   ret = signal->pSigCfg->outDriver(&(signal->value));
 114              		.loc 2 388 0
 115 004c 0448     		ldr	r0, .L10+4
 116 004e 8368     		ldr	r3, [r0, #8]
 117 0050 5B68     		ldr	r3, [r3, #4]
 118 0052 9847     		blx	r3
 119              	.LVL13:
 120              	.L7:
 121              	.LBE15:
 122              	.LBE14:
ARM GAS  C:\Users\DHEERA~1\AppData\Local\Temp\ccIXxqMh.s 			page 11


  58:sources\asw/swc_brakelight.c ****     }
  59:sources\asw/swc_brakelight.c ****     
  60:sources\asw/swc_brakelight.c ****     ret = RTE_SC_BRAKELIGHT_set(&SO_BRAKELIGHT_signal, brakeLightValue);
  61:sources\asw/swc_brakelight.c ****     
  62:sources\asw/swc_brakelight.c ****     if(ret == RC_SUCCESS)
  63:sources\asw/swc_brakelight.c ****     {
  64:sources\asw/swc_brakelight.c ****         ret = RTE_SC_BRAKELIGHT_pushPort(&SO_BRAKELIGHT_signal);
  65:sources\asw/swc_brakelight.c ****     }
  66:sources\asw/swc_brakelight.c ****     else
  67:sources\asw/swc_brakelight.c ****     {
  68:sources\asw/swc_brakelight.c ****         UART_LOG_PutString("\r\nError: Breaklight signal not able to write to Driver");
  69:sources\asw/swc_brakelight.c ****     }
  70:sources\asw/swc_brakelight.c ****     
  71:sources\asw/swc_brakelight.c ****     WD_Alive(run_brakelight_pos);
 123              		.loc 1 71 0
 124 0054 0320     		movs	r0, #3
 125 0056 FFF7FEFF 		bl	WD_Alive
 126              	.LVL14:
 127 005a 38BD     		pop	{r3, r4, r5, pc}
 128              	.L11:
 129              		.align	2
 130              	.L10:
 131 005c 00000000 		.word	SO_SPEED_signal
 132 0060 00000000 		.word	SO_BRAKELIGHT_signal
 133              		.cfi_endproc
 134              	.LFE154:
 135              		.size	BRAKELIGHT_setBrakeLight_run, .-BRAKELIGHT_setBrakeLight_run
 136              		.text
 137              	.Letext0:
 138              		.file 3 "d:\\psoc creator\\4.4\\psoc creator\\import\\gnu\\arm\\5.4.1\\arm-none-eabi\\include\\mac
 139              		.file 4 "d:\\psoc creator\\4.4\\psoc creator\\import\\gnu\\arm\\5.4.1\\arm-none-eabi\\include\\sys
 140              		.file 5 "d:\\psoc creator\\4.4\\psoc creator\\import\\gnu\\arm\\5.4.1\\lib\\gcc\\arm-none-eabi\\5.
 141              		.file 6 "Generated_Source\\PSoC5/ErikaOS_1_common_ee_types.inc"
 142              		.file 7 "Generated_Source\\PSoC5/ErikaOS_1_cortex_mx_ee_cpu.inc"
 143              		.file 8 "Generated_Source\\PSoC5/ErikaOS_1_ee_oo_common.inc"
 144              		.file 9 ".\\sources\\bsw/global.h"
 145              		.file 10 ".\\sources\\rte/rte_types.h"
 146              		.file 11 ".\\sources\\rte/rte.h"
 147              		.file 12 ".\\sources\\rte/sc_speed_type.h"
 148              		.file 13 ".\\sources\\rte/sc_speed.h"
 149              		.file 14 ".\\sources\\rte/sc_brakelight_type.h"
 150              		.file 15 "Generated_Source\\PSoC5/ErikaOS_1_ee_oo_intfunc.inc"
 151              		.file 16 "Generated_Source\\PSoC5/ErikaOS_1_cortex_mx_ee_context.inc"
 152              		.file 17 "Generated_Source\\PSoC5/ErikaOS_1_common_ee_primitives.inc"
 153              		.file 18 "Generated_Source\\PSoC5/core_cm3.h"
 154              		.file 19 ".\\sources\\rte/sp_common.h"
 155              		.file 20 "Generated_Source\\PSoC5/ErikaOS_1_ee_oo_kernel.inc"
 156              		.file 21 "./WatchDogTimer.h"